(dp1
S'R0'
p2
c__builtin__
set
p3
((lp4
(I7
I3
tp5
a(I75
I41
tp6
a(I20
I25
tp7
a(I58
I41
tp8
a(I38
I20
tp9
a(I37
I20
tp10
a(I84
I41
tp11
a(I64
I41
tp12
a(I3
I7
tp13
a(I59
I41
tp14
a(I69
I41
tp15
a(I12
I3
tp16
a(I20
I35
tp17
a(I95
I41
tp18
a(I93
I41
tp19
a(I16
I3
tp20
a(I20
I30
tp21
a(I19
I3
tp22
a(I33
I20
tp23
a(I39
I20
tp24
a(I68
I41
tp25
a(I66
I41
tp26
a(I63
I41
tp27
a(I61
I41
tp28
a(I94
I41
tp29
a(I43
I41
tp30
a(I92
I41
tp31
a(I73
I41
tp32
a(I20
I32
tp33
a(I99
I41
tp34
a(I97
I41
tp35
a(I41
I69
tp36
a(I41
I90
tp37
a(I41
I45
tp38
a(I3
I12
tp39
a(I29
I20
tp40
a(I60
I41
tp41
a(I34
I20
tp42
a(I72
I41
tp43
a(I3
I18
tp44
a(I20
I37
tp45
a(I45
I41
tp46
a(I62
I41
tp47
a(I71
I41
tp48
a(I41
I64
tp49
a(I81
I41
tp50
a(I3
I11
tp51
a(I2
I1
tp52
a(I83
I41
tp53
a(I3
I17
tp54
a(I10
I3
tp55
a(I74
I41
tp56
a(I20
I26
tp57
a(I70
I41
tp58
a(I41
I78
tp59
a(I49
I41
tp60
a(I98
I41
tp61
a(I13
I3
tp62
a(I80
I41
tp63
a(I41
I67
tp64
a(I86
I41
tp65
a(I3
I6
tp66
a(I41
I56
tp67
a(I48
I41
tp68
a(I30
I20
tp69
a(I20
I31
tp70
a(I35
I20
tp71
a(I40
I20
tp72
a(I96
I41
tp73
a(I82
I41
tp74
a(I77
I41
tp75
a(I41
I83
tp76
a(I41
I96
tp77
a(I32
I20
tp78
a(I20
I33
tp79
a(I11
I3
tp80
a(I20
I28
tp81
a(I25
I20
tp82
a(I14
I3
tp83
a(I36
I20
tp84
a(I76
I41
tp85
a(I41
I89
tp86
a(I54
I41
tp87
a(I50
I41
tp88
a(I20
I38
tp89
a(I41
I71
tp90
a(I22
I20
tp91
a(I21
I20
tp92
a(I27
I20
tp93
a(I26
I20
tp94
a(I41
I47
tp95
a(I3
I10
tp96
a(I3
I16
tp97
a(I20
I27
tp98
a(I41
I77
tp99
a(I15
I3
tp100
a(I8
I3
tp101
a(I23
I20
tp102
a(I3
I9
tp103
a(I5
I3
tp104
a(I51
I41
tp105
a(I20
I24
tp106
a(I41
I72
tp107
a(I42
I41
tp108
a(I87
I41
tp109
a(I20
I34
tp110
a(I20
I29
tp111
a(I53
I41
tp112
a(I17
I3
tp113
a(I79
I41
tp114
a(I89
I41
tp115
a(I3
I14
tp116
a(I44
I41
tp117
a(I6
I3
tp118
a(I67
I41
tp119
a(I52
I41
tp120
a(I47
I41
tp121
a(I78
I41
tp122
a(I57
I41
tp123
a(I88
I41
tp124
a(I9
I3
tp125
a(I41
I46
tp126
a(I41
I68
tp127
a(I3
I13
tp128
a(I31
I20
tp129
a(I46
I41
tp130
a(I20
I36
tp131
a(I24
I20
tp132
a(I56
I41
tp133
a(I20
I23
tp134
a(I91
I41
tp135
a(I18
I3
tp136
a(I90
I41
tp137
a(I55
I41
tp138
a(I3
I8
tp139
a(I85
I41
tp140
a(I28
I20
tp141
a(I65
I41
tp142
a(I4
I3
tp143
a(I41
I51
tp144
atRp145
sS'R1'
p146
g3
((lp147
(I3
I108
tp148
a(I3
I114
tp149
a(I20
I136
tp150
a(I81
I141
tp151
a(I41
I147
tp152
a(I26
I120
tp153
a(I45
I141
tp154
a(I71
I141
tp155
a(I39
I120
tp156
a(I3
I107
tp157
a(I46
I141
tp158
a(I56
I141
tp159
a(I3
I113
tp160
a(I74
I141
tp161
a(I16
I103
tp162
a(I11
I103
tp163
a(I77
I141
tp164
a(I78
I141
tp165
a(I88
I141
tp166
a(I98
I141
tp167
a(I52
I141
tp168
a(I40
I120
tp169
a(I57
I141
tp170
a(I76
I141
tp171
a(I20
I130
tp172
a(I41
I169
tp173
a(I59
I141
tp174
a(I41
I190
tp175
a(I15
I103
tp176
a(I58
I141
tp177
a(I28
I120
tp178
a(I65
I141
tp179
a(I3
I118
tp180
a(I67
I141
tp181
a(I10
I103
tp182
a(I25
I120
tp183
a(I5
I103
tp184
a(I14
I103
tp185
a(I20
I126
tp186
a(I41
I151
tp187
a(I20
I135
tp188
a(I41
I164
tp189
a(I90
I141
tp190
a(I55
I141
tp191
a(I3
I111
tp192
a(I4
I103
tp193
a(I54
I141
tp194
a(I97
I141
tp195
a(I32
I120
tp196
a(I3
I117
tp197
a(I20
I137
tp198
a(I61
I141
tp199
a(I41
I146
tp200
a(I20
I132
tp201
a(I41
I167
tp202
a(I72
I141
tp203
a(I96
I141
tp204
a(I3
I106
tp205
a(I69
I141
tp206
a(I93
I141
tp207
a(I3
I112
tp208
a(I34
I120
tp209
a(I30
I120
tp210
a(I22
I120
tp211
a(I27
I120
tp212
a(I41
I183
tp213
a(I68
I141
tp214
a(I51
I141
tp215
a(I12
I103
tp216
a(I20
I131
tp217
a(I41
I168
tp218
a(I18
I103
tp219
a(I41
I189
tp220
a(I13
I103
tp221
a(I29
I120
tp222
a(I83
I141
tp223
a(I41
I178
tp224
a(I48
I141
tp225
a(I47
I141
tp226
a(I17
I103
tp227
a(I20
I127
tp228
a(I7
I103
tp229
a(I20
I128
tp230
a(I89
I141
tp231
a(I41
I171
tp232
a(I70
I141
tp233
a(I36
I120
tp234
a(I2
I101
tp235
a(I80
I141
tp236
a(I53
I141
tp237
a(I3
I110
tp238
a(I33
I120
tp239
a(I79
I141
tp240
a(I6
I103
tp241
a(I44
I141
tp242
a(I3
I116
tp243
a(I41
I156
tp244
a(I20
I138
tp245
a(I20
I124
tp246
a(I41
I145
tp247
a(I20
I133
tp248
a(I91
I141
tp249
a(I85
I141
tp250
a(I21
I120
tp251
a(I50
I141
tp252
a(I87
I141
tp253
a(I3
I109
tp254
a(I31
I120
tp255
a(I41
I196
tp256
a(I41
I172
tp257
a(I84
I141
tp258
a(I82
I141
tp259
a(I19
I103
tp260
a(I38
I120
tp261
a(I20
I123
tp262
a(I9
I103
tp263
a(I35
I120
tp264
a(I99
I141
tp265
a(I64
I141
tp266
a(I63
I141
tp267
a(I41
I177
tp268
a(I8
I103
tp269
a(I23
I120
tp270
a(I62
I141
tp271
a(I86
I141
tp272
a(I73
I141
tp273
a(I20
I129
tp274
a(I37
I120
tp275
a(I95
I141
tp276
a(I60
I141
tp277
a(I94
I141
tp278
a(I43
I141
tp279
a(I42
I141
tp280
a(I20
I125
tp281
a(I66
I141
tp282
a(I24
I120
tp283
a(I20
I134
tp284
a(I92
I141
tp285
a(I49
I141
tp286
a(I75
I141
tp287
atRp288
sS'R2'
p289
g3
((lp290
(I141
I289
tp291
a(I174
I241
tp292
a(I153
I241
tp293
a(I120
I230
tp294
a(I192
I241
tp295
a(I187
I241
tp296
a(I141
I264
tp297
a(I103
I209
tp298
a(I168
I241
tp299
a(I163
I241
tp300
a(I141
I277
tp301
a(I125
I220
tp302
a(I197
I241
tp303
a(I122
I220
tp304
a(I120
I227
tp305
a(I141
I267
tp306
a(I103
I212
tp307
a(I139
I220
tp308
a(I112
I203
tp309
a(I120
I237
tp310
a(I136
I220
tp311
a(I120
I224
tp312
a(I162
I241
tp313
a(I109
I203
tp314
a(I157
I241
tp315
a(I103
I206
tp316
a(I141
I283
tp317
a(I110
I203
tp318
a(I172
I241
tp319
a(I167
I241
tp320
a(I135
I220
tp321
a(I148
I241
tp322
a(I141
I245
tp323
a(I121
I220
tp324
a(I143
I241
tp325
a(I132
I220
tp326
a(I182
I241
tp327
a(I161
I241
tp328
a(I116
I203
tp329
a(I158
I241
tp330
a(I120
I235
tp331
a(I176
I241
tp332
a(I171
I241
tp333
a(I120
I231
tp334
a(I152
I241
tp335
a(I147
I241
tp336
a(I191
I241
tp337
a(I103
I208
tp338
a(I186
I241
tp339
a(I181
I241
tp340
a(I115
I203
tp341
a(I108
I203
tp342
a(I134
I220
tp343
a(I196
I241
tp344
a(I141
I251
tp345
a(I131
I220
tp346
a(I120
I228
tp347
a(I128
I220
tp348
a(I146
I241
tp349
a(I185
I241
tp350
a(I173
I241
tp351
a(I104
I203
tp352
a(I137
I220
tp353
a(I120
I234
tp354
a(I120
I238
tp355
a(I120
I225
tp356
a(I195
I241
tp357
a(I141
I256
tp358
a(I127
I220
tp359
a(I156
I241
tp360
a(I141
I269
tp361
a(I103
I218
tp362
a(I151
I241
tp363
a(I133
I220
tp364
a(I114
I203
tp365
a(I145
I241
tp366
a(I142
I241
tp367
a(I130
I220
tp368
a(I141
I272
tp369
a(I103
I217
tp370
a(I160
I241
tp371
a(I155
I241
tp372
a(I194
I241
tp373
a(I120
I233
tp374
a(I141
I247
tp375
a(I170
I241
tp376
a(I119
I203
tp377
a(I113
I203
tp378
a(I103
I211
tp379
a(I199
I241
tp380
a(I180
I241
tp381
a(I175
I241
tp382
a(I141
I290
tp383
a(I183
I241
tp384
a(I120
I229
tp385
a(I193
I241
tp386
a(I190
I241
tp387
a(I169
I241
tp388
a(I129
I220
tp389
a(I117
I203
tp390
a(I118
I203
tp391
a(I103
I214
tp392
a(I141
I278
tp393
a(I189
I241
tp394
a(I184
I241
tp395
a(I124
I220
tp396
a(I120
I232
tp397
a(I120
I226
tp398
a(I166
I241
tp399
a(I141
I268
tp400
a(I103
I213
tp401
a(I106
I203
tp402
a(I107
I203
tp403
a(I150
I241
tp404
a(I138
I220
tp405
a(I141
I296
tp406
a(I120
I236
tp407
a(I120
I223
tp408
a(I144
I241
tp409
a(I103
I207
tp410
a(I141
I271
tp411
a(I103
I216
tp412
a(I102
I201
tp413
a(I178
I241
tp414
a(I126
I220
tp415
a(I105
I203
tp416
a(I154
I241
tp417
a(I149
I241
tp418
a(I123
I220
tp419
a(I141
I246
tp420
a(I188
I241
tp421
a(I111
I203
tp422
a(I164
I241
tp423
a(I103
I210
tp424
a(I159
I241
tp425
a(I198
I241
tp426
a(I140
I220
tp427
a(I179
I241
tp428
a(I177
I241
tp429
a(I165
I241
tp430
atRp431
sS'R3'
p432
g3
((lp433
(I214
I3
tp434
a(I231
I20
tp435
a(I220
I31
tp436
a(I236
I20
tp437
a(I255
I41
tp438
a(I253
I41
tp439
a(I220
I32
tp440
a(I247
I41
tp441
a(I241
I72
tp442
a(I221
I20
tp443
a(I220
I28
tp444
a(I252
I41
tp445
a(I226
I20
tp446
a(I241
I46
tp447
a(I286
I41
tp448
a(I220
I37
tp449
a(I241
I51
tp450
a(I212
I3
tp451
a(I215
I3
tp452
a(I271
I41
tp453
a(I281
I41
tp454
a(I203
I10
tp455
a(I283
I41
tp456
a(I205
I3
tp457
a(I220
I27
tp458
a(I270
I41
tp459
a(I280
I41
tp460
a(I275
I41
tp461
a(I222
I20
tp462
a(I203
I9
tp463
a(I227
I20
tp464
a(I232
I20
tp465
a(I217
I3
tp466
a(I220
I24
tp467
a(I241
I96
tp468
a(I282
I41
tp469
a(I277
I41
tp470
a(I259
I41
tp471
a(I220
I33
tp472
a(I257
I41
tp473
a(I242
I41
tp474
a(I206
I3
tp475
a(I238
I20
tp476
a(I228
I20
tp477
a(I220
I29
tp478
a(I276
I41
tp479
a(I203
I14
tp480
a(I256
I41
tp481
a(I241
I45
tp482
a(I220
I38
tp483
a(I241
I69
tp484
a(I224
I20
tp485
a(I239
I20
tp486
a(I285
I41
tp487
a(I220
I23
tp488
a(I218
I3
tp489
a(I246
I41
tp490
a(I254
I41
tp491
a(I204
I3
tp492
a(I203
I13
tp493
a(I260
I41
tp494
a(I258
I41
tp495
a(I207
I3
tp496
a(I241
I64
tp497
a(I284
I41
tp498
a(I265
I41
tp499
a(I279
I41
tp500
a(I296
I41
tp501
a(I291
I41
tp502
a(I289
I41
tp503
a(I241
I90
tp504
a(I237
I20
tp505
a(I203
I7
tp506
a(I243
I41
tp507
a(I203
I8
tp508
a(I241
I56
tp509
a(I264
I41
tp510
a(I216
I3
tp511
a(I241
I67
tp512
a(I288
I41
tp513
a(I220
I25
tp514
a(I219
I3
tp515
a(I298
I41
tp516
a(I263
I41
tp517
a(I293
I41
tp518
a(I273
I41
tp519
a(I261
I41
tp520
a(I223
I20
tp521
a(I299
I41
tp522
a(I245
I41
tp523
a(I209
I3
tp524
a(I241
I78
tp525
a(I266
I41
tp526
a(I262
I41
tp527
a(I241
I83
tp528
a(I292
I41
tp529
a(I220
I30
tp530
a(I290
I41
tp531
a(I272
I41
tp532
a(I267
I41
tp533
a(I244
I41
tp534
a(I203
I18
tp535
a(I249
I41
tp536
a(I241
I68
tp537
a(I287
I41
tp538
a(I203
I16
tp539
a(I274
I41
tp540
a(I297
I41
tp541
a(I202
I1
tp542
a(I269
I41
tp543
a(I203
I12
tp544
a(I241
I47
tp545
a(I248
I41
tp546
a(I203
I17
tp547
a(I210
I3
tp548
a(I233
I20
tp549
a(I241
I71
tp550
a(I213
I3
tp551
a(I241
I89
tp552
a(I295
I41
tp553
a(I268
I41
tp554
a(I203
I6
tp555
a(I294
I41
tp556
a(I203
I11
tp557
a(I278
I41
tp558
a(I250
I41
tp559
a(I230
I20
tp560
a(I229
I20
tp561
a(I220
I36
tp562
a(I235
I20
tp563
a(I234
I20
tp564
a(I240
I20
tp565
a(I220
I26
tp566
a(I251
I41
tp567
a(I220
I34
tp568
a(I208
I3
tp569
a(I220
I35
tp570
a(I211
I3
tp571
a(I241
I77
tp572
a(I225
I20
tp573
atRp574
s.