(dp1
(I1427
I41
tp2
F93.184409018449159
s(I506
I1126
tp3
F3.8226829479326319
s(I255
I41
tp4
F37.101194900949906
s(I41
I867
tp5
F21.059593587490689
s(I258
I541
tp6
F6.9285184163752067
s(I1041
I418
tp7
F67.159357795515319
s(I541
I1249
tp8
F70.257245736298586
s(I1078
I41
tp9
F92.845747996354106
s(I1020
I33
tp10
F19.703026960380132
s(I885
I1041
tp11
F13.352990173305102
s(I110
I41
tp12
F96.066715878666258
s(I788
I1041
tp13
F48.518093558922907
s(I1198
I41
tp14
F47.949271566418204
s(I41
I908
tp15
F83.713227722974239
s(I209
I41
tp16
F7.2987717437214545
s(I1041
I64
tp17
F39.696835820025321
s(I1041
I51
tp18
F56.713218174826117
s(I526
I1020
tp19
F41.279207530266625
s(I824
I1041
tp20
F38.121505172300985
s(I627
I1041
tp21
F49.103328661735816
s(I1143
I41
tp22
F31.243050673772387
s(I813
I1041
tp23
F7.7277792186272398
s(I367
I541
tp24
F54.653705938168471
s(I264
I541
tp25
F53.415903572846943
s(I1041
I377
tp26
F26.921376949740228
s(I118
I541
tp27
F3.3933171578418353
s(I67
I541
tp28
F94.400177934536927
s(I872
I1041
tp29
F11.552928938105056
s(I968
I1478
tp30
F73.094731580360047
s(I909
I1375
tp31
F85.870391987885611
s(I1409
I478
tp32
F39.418195412894775
s(I1181
I41
tp33
F30.610122518575565
s(I41
I256
tp34
F57.364440152624773
s(I41
I686
tp35
F29.765690691933344
s(I520
I1026
tp36
F38.813747977580263
s(I1041
I467
tp37
F52.355479464924883
s(I122
I861
tp38
F74.013581508882012
s(I329
I541
tp39
F27.00094175529032
s(I41
I401
tp40
F85.7582477285641
s(I41
I868
tp41
F43.409236382204789
s(I1133
I41
tp42
F14.621414111321563
s(I337
I859
tp43
F51.396402597377246
s(I541
I1274
tp44
F86.304478863293568
s(I231
I41
tp45
F64.911772307055514
s(I1003
I16
tp46
F88.800035734729065
s(I1307
I41
tp47
F27.825867298742146
s(I1183
I41
tp48
F49.734972531191666
s(I208
I541
tp49
F87.39534330362099
s(I541
I1387
tp50
F19.347590245893031
s(I1211
I345
tp51
F67.748321822579257
s(I86
I41
tp52
F28.697263347934765
s(I451
I41
tp53
F29.671977626620137
s(I476
I909
tp54
F77.1036566339926
s(I1069
I41
tp55
F42.836468867746532
s(I41
I179
tp56
F20.468986905313812
s(I1130
I41
tp57
F90.329312222807971
s(I1014
I126
tp58
F7.2922304946161702
s(I1041
I370
tp59
F67.017601855106378
s(I101
I41
tp60
F81.20830051562919
s(I541
I1308
tp61
F75.871216516595609
s(I339
I361
tp62
F33.989716395928539
s(I845
I1476
tp63
F95.074735805797573
s(I3
I11
tp64
F89.415294759513628
s(I850
I1041
tp65
F95.653248271881708
s(I169
I41
tp66
F10.864326558902949
s(I520
I1033
tp67
F83.252125735141618
s(I1041
I259
tp68
F90.206890955499986
s(I104
I541
tp69
F95.847048908719657
s(I541
I1421
tp70
F11.609438416925578
s(I890
I1041
tp71
F27.863310920753204
s(I1041
I333
tp72
F31.126588656490839
s(I126
I505
tp73
F75.098906047515314
s(I1067
I409
tp74
F97.997411753226558
s(I1126
I8
tp75
F23.882312675161323
s(I41
I410
tp76
F14.453662148080937
s(I41
I877
tp77
F99.982965100027855
s(I371
I41
tp78
F47.276333946177431
s(I1041
I412
tp79
F33.50302757717688
s(I541
I1267
tp80
F52.037924191962816
s(I305
I541
tp81
F88.734886647684263
s(I468
I959
tp82
F68.242539499629046
s(I1003
I9
tp83
F85.09710754935621
s(I382
I541
tp84
F23.597228912747028
s(I812
I1041
tp85
F54.55168954594469
s(I734
I1041
tp86
F59.917214689947961
s(I1009
I3
tp87
F55.595077566059793
s(I243
I909
tp88
F12.410923933583717
s(I1440
I41
tp89
F22.600009108625773
s(I1041
I45
tp90
F74.184388813518737
s(I541
I1380
tp91
F15.281845516151026
s(I591
I1041
tp92
F57.262869348873146
s(I948
I1041
tp93
F29.124081383897369
s(I662
I1041
tp94
F13.582593676373634
s(I468
I475
tp95
F56.675265788933814
s(I909
I1163
tp96
F57.404388350907219
s(I1093
I41
tp97
F84.47409281757561
s(I541
I1450
tp98
F75.551275905845927
s(I427
I41
tp99
F81.930513933535238
s(I1041
I190
tp100
F17.260965717769782
s(I541
I1301
tp101
F75.137812901258997
s(I488
I41
tp102
F3.0551692724991697
s(I626
I1011
tp103
F6.9116145803239881
s(I1106
I41
tp104
F0.73533164099157666
s(I41
I370
tp105
F36.683027118092845
s(I77
I41
tp106
F53.738832445316142
s(I1326
I41
tp107
F38.771719552272742
s(I1146
I41
tp108
F0.98907825245783121
s(I7
I503
tp109
F5.7955932166083635
s(I1041
I260
tp110
F82.31605869599673
s(I541
I1414
tp111
F94.424374890259173
s(I1345
I396
tp112
F70.99593799130308
s(I805
I1041
tp113
F6.9994176716599021
s(I41
I387
tp114
F77.007311835651109
s(I41
I854
tp115
F1.2331710391111583
s(I297
I41
tp116
F44.016381398326047
s(I541
I1413
tp117
F70.305542176252729
s(I409
I781
tp118
F95.089056466874439
s(I541
I1228
tp119
F5.6008231840650513
s(I1041
I413
tp120
F22.542511015813204
s(I841
I1041
tp121
F23.473393242436202
s(I1003
I14
tp122
F66.707809071281318
s(I1391
I41
tp123
F77.873448406322083
s(I968
I1009
tp124
F27.041450327919758
s(I1476
I345
tp125
F51.440567192939326
s(I347
I41
tp126
F30.251837465310139
s(I1011
I126
tp127
F44.737248193426446
s(I41
I999
tp128
F7.3175474518800909
s(I152
I41
tp129
F60.87724186127442
s(I541
I1405
tp130
F78.482941529370876
s(I451
I909
tp131
F26.175148938707704
s(I361
I322
tp132
F48.536434438429112
s(I1041
I478
tp133
F64.904420740213126
s(I1409
I432
tp134
F65.703364027320333
s(I736
I1041
tp135
F42.291243849296798
s(I1220
I409
tp136
F10.29513969349718
s(I1041
I364
tp137
F75.511506884909465
s(I337
I631
tp138
F14.080971495980121
s(I3
I8
tp139
F93.629973429898286
s(I217
I41
tp140
F20.801368719089787
s(I1447
I41
tp141
F86.431796979774404
s(I314
I41
tp142
F24.382722692087423
s(I41
I379
tp143
F77.515482441950169
s(I1041
I479
tp144
F28.62847223442796
s(I41
I641
tp145
F33.675467558519081
s(I464
I41
tp146
F73.487852635460442
s(I541
I1439
tp147
F55.825522623214063
s(I580
I1041
tp148
F25.417360838374258
s(I1041
I433
tp149
F93.111301124173806
s(I41
I386
tp150
F25.70745492606159
s(I1302
I41
tp151
F68.696205529071293
s(I1491
I41
tp152
F29.252948535765345
s(I41
I388
tp153
F98.377342944551884
s(I41
I863
tp154
F38.117224146744277
s(I409
I163
tp155
F85.734298301107145
s(I1003
I7
tp156
F65.423983057172066
s(I654
I1361
tp157
F87.990148889695874
s(I273
I41
tp158
F20.18743712548341
s(I842
I1041
tp159
F53.832490022568699
s(I823
I1041
tp160
F56.327692337504601
s(I350
I41
tp161
F27.985663743710411
s(I151
I541
tp162
F54.858478758794661
s(I750
I1041
tp163
F2.3830009919382555
s(I1367
I41
tp164
F24.268592580282487
s(I212
I541
tp165
F48.384611310142667
s(I632
I1041
tp166
F37.314619351909265
s(I512
I1003
tp167
F75.813048474977762
s(I859
I1041
tp168
F20.241835231074134
s(I1172
I41
tp169
F13.520470609706958
s(I519
I1003
tp170
F29.349499137021219
s(I128
I41
tp171
F85.451327603108112
s(I41
I633
tp172
F26.95153861196188
s(I608
I1041
tp173
F87.752165292663861
s(I1041
I168
tp174
F21.63122452804749
s(I651
I1041
tp175
F11.029602671518045
s(I413
I541
tp176
F23.597510391032728
s(I159
I41
tp177
F43.87177640436699
s(I474
I541
tp178
F44.51399173028571
s(I1041
I167
tp179
F7.560149455854881
s(I41
I380
tp180
F51.200363892206283
s(I703
I1041
tp181
F52.34837053661726
s(I1237
I41
tp182
F31.229328445587502
s(I193
I41
tp183
F66.421570387127488
s(I541
I1432
tp184
F34.858727413382695
s(I487
I541
tp185
F37.177040478035771
s(I1484
I41
tp186
F59.121738198772867
s(I42
I909
tp187
F40.485327688119135
s(I292
I541
tp188
F99.09050298290272
s(I1041
I391
tp189
F29.258880826119736
s(I321
I909
tp190
F73.388127948409291
s(I1041
I311
tp191
F37.561108450987589
s(I166
I41
tp192
F36.736191789852576
s(I41
I977
tp193
F64.230729293601314
s(I79
I41
tp194
F5.9857144531523465
s(I503
I1008
tp195
F22.260095264715162
s(I541
I1359
tp196
F82.500265006216978
s(I1354
I41
tp197
F13.729247070738237
s(I326
I41
tp198
F48.53168591314644
s(I475
I468
tp199
F45.658846433460489
s(I41
I175
tp200
F6.0263203146707855
s(I39
I520
tp201
F38.799984143766167
s(I1203
I337
tp202
F46.009790124300643
s(I409
I966
tp203
F63.618645776811078
s(I640
I1041
tp204
F88.978374056378115
s(I1041
I266
tp205
F80.714575770059369
s(I1498
I41
tp206
F12.966209071804101
s(I41
I357
tp207
F34.620722991065087
s(I41
I824
tp208
F60.519008100747271
s(I41
I755
tp209
F39.864077379431897
s(I541
I1460
tp210
F51.86449022325862
s(I232
I541
tp211
F85.187841489550692
s(I135
I41
tp212
F11.215738486512761
s(I688
I1041
tp213
F15.455160931932522
s(I541
I1425
tp214
F87.64498308553334
s(I196
I41
tp215
F8.2378678560184433
s(I253
I541
tp216
F66.910807356692274
s(I1213
I41
tp217
F98.712392612539603
s(I58
I541
tp218
F75.144291861586311
s(I740
I1041
tp219
F65.229097154723888
s(I705
I1041
tp220
F43.296108137923405
s(I1004
I126
tp221
F17.539087688651268
s(I1013
I3
tp222
F36.287924121738783
s(I246
I41
tp223
F29.310836592900369
s(I541
I1239
tp224
F22.080507604369849
s(I71
I541
tp225
F42.547195650165989
s(I753
I1041
tp226
F11.697661260554993
s(I41
I986
tp227
F32.568761984348981
s(I65
I409
tp228
F62.499207126204951
s(I541
I1352
tp229
F32.855829786208623
s(I211
I541
tp230
F91.252721739756566
s(I968
I1409
tp231
F47.963485397591811
s(I549
I1041
tp232
F23.874937459755564
s(I468
I511
tp233
F48.358544576696161
s(I55
I41
tp234
F59.609381243320016
s(I188
I541
tp235
F42.506714187821657
s(I1091
I41
tp236
F41.891141852005831
s(I116
I41
tp237
F51.040872469180712
s(I333
I541
tp238
F30.786203216778318
s(I1330
I41
tp239
F77.726031022570936
s(I1041
I343
tp240
F48.961661535701005
s(I409
I514
tp241
F83.041587621272214
s(I138
I541
tp242
F9.5931106111189379
s(I359
I541
tp243
F77.319099590797862
s(I909
I1397
tp244
F47.901028529206648
s(I164
I541
tp245
F91.351102883589633
s(I473
I541
tp246
F60.300019798381669
s(I1409
I451
tp247
F10.971517799411901
s(I41
I366
tp248
F50.044003088911971
s(I41
I801
tp249
F6.980721799112577
s(I41
I756
tp250
F0.065668829331888556
s(I499
I541
tp251
F37.445777868093202
s(I1041
I480
tp252
F95.279710054117999
s(I851
I1041
tp253
F11.994210791307214
s(I909
I1478
tp254
F95.821679344706794
s(I41
I946
tp255
F57.91708157965143
s(I478
I409
tp256
F50.884294478576145
s(I172
I41
tp257
F49.443073962257081
s(I706
I1041
tp258
F21.772988867555366
s(I1489
I41
tp259
F67.984274046339266
s(I541
I1453
tp260
F76.307426449965092
s(I1250
I41
tp261
F21.740679908833016
s(I1260
I41
tp262
F2.935109531782365
s(I758
I1041
tp263
F80.135565108769654
s(I41
I963
tp264
F66.767316889358426
s(I541
I1345
tp265
F7.576099650740109
s(I1409
I397
tp266
F84.729689055505148
s(I1409
I41
tp267
F43.72247234587153
s(I1282
I345
tp268
F73.705841035665372
s(I1365
I41
tp269
F62.031789390167383
s(I237
I41
tp270
F25.583241386987609
s(I550
I1041
tp271
F74.540642091651364
s(I911
I1041
tp272
F51.777017136917415
s(I384
I541
tp273
F64.691908955639292
s(I441
I41
tp274
F14.789615260653521
s(I42
I41
tp275
F51.363668033199936
s(I1464
I41
tp276
F96.410107462347511
s(I409
I976
tp277
F71.673318442621607
s(I586
I1041
tp278
F3.8979806054092458
s(I567
I1041
tp279
F26.527001517428495
s(I1067
I41
tp280
F72.236664559148053
s(I92
I41
tp281
F91.679519236557951
s(I98
I541
tp282
F2.233343496371698
s(I41
I343
tp283
F1.6372456448276451
s(I409
I843
tp284
F86.416209559559817
s(I99
I41
tp285
F22.964334402690454
s(I1041
I313
tp286
F23.549526248568707
s(I615
I1041
tp287
F36.201771936935991
s(I149
I541
tp288
F29.823844491499663
s(I296
I41
tp289
F37.558037195079685
s(I41
I480
tp290
F78.019434811101078
s(I41
I955
tp291
F32.73977743179347
s(I280
I541
tp292
F95.744953921024191
s(I83
I541
tp293
F43.224759420119618
s(I1041
I106
tp294
F88.302120682819506
s(I541
I1193
tp295
F76.194187534738418
s(I29
I20
tp296
F82.863513491886962
s(I124
I541
tp297
F31.538743362518527
s(I402
I541
tp298
F76.538350925820595
s(I205
I541
tp299
F17.935389907036058
s(I41
I964
tp300
F2.3857330408689315
s(I837
I1425
tp301
F81.848037417162729
s(I62
I409
tp302
F8.8672296962156736
s(I1041
I251
tp303
F7.4847085445597372
s(I541
I1370
tp304
F59.049861205469256
s(I1398
I41
tp305
F58.650326116456064
s(I1041
I281
tp306
F33.298813779042376
s(I345
I541
tp307
F20.030216429963453
s(I910
I1041
tp308
F55.111819640639993
s(I1412
I41
tp309
F43.988211125573216
s(I38
I520
tp310
F49.220036181402584
s(I41
I130
tp311
F1.1479666413365619
s(I1041
I321
tp312
F60.450924758213887
s(I1041
I148
tp313
F22.352297827875699
s(I1462
I41
tp314
F7.0503494322567528
s(I875
I1409
tp315
F84.704623057517992
s(I417
I41
tp316
F10.320106228973636
s(I163
I541
tp317
F11.159142256098653
s(I41
I344
tp318
F36.138782141225867
s(I41
I787
tp319
F44.311472637966233
s(I224
I541
tp320
F69.277028812655047
s(I1477
I41
tp321
F18.905034503675854
s(I604
I1041
tp322
F55.39864574348622
s(I1281
I409
tp323
F54.963809963138907
s(I1337
I228
tp324
F80.928832493397408
s(I1325
I337
tp325
F6.8352192038716009
s(I1104
I41
tp326
F71.457340205921355
s(I75
I41
tp327
F14.353180968931634
s(I41
I489
tp328
F48.809015256369328
s(I41
I956
tp329
F59.941816900482245
s(I425
I541
tp330
F48.682375562277457
s(I303
I541
tp331
F97.617892450702584
s(I541
I1186
tp332
F69.130226004213299
s(I303
I41
tp333
F99.42332440905993
s(I904
I1041
tp334
F64.423166817379965
s(I861
I1339
tp335
F27.051436370205849
s(I541
I1350
tp336
F93.829522551943086
s(I120
I541
tp337
F51.51362676437401
s(I541
I1363
tp338
F98.336870682811693
s(I30
I20
tp339
F65.503613265921331
s(I939
I1041
tp340
F73.801312568524651
s(I217
I345
tp341
F54.581287277647128
s(I1397
I41
tp342
F73.711554128459483
s(I41
I304
tp343
F19.936257472836072
s(I41
I139
tp344
F13.100059295271604
s(I41
I606
tp345
F82.10506066156664
s(I8
I626
tp346
F97.099301244607815
s(I337
I311
tp347
F44.08228732869587
s(I1041
I141
tp348
F85.738455688076655
s(I541
I1476
tp349
F29.384747454869565
s(I142
I541
tp350
F20.836473519369235
s(I857
I1041
tp351
F84.016860930847187
s(I1041
I226
tp352
F78.586872792147943
s(I995
I1041
tp353
F42.062911291901564
s(I420
I41
tp354
F8.5705301420186402
s(I41
I321
tp355
F99.018766289717632
s(I41
I788
tp356
F28.566500910241508
s(I41
I751
tp357
F0.12118604333477556
s(I1041
I459
tp358
F2.6210593146718364
s(I11
I3
tp359
F25.501996895393976
s(I837
I1078
tp360
F49.552613044737079
s(I470
I41
tp361
F57.34558398697709
s(I200
I541
tp362
F0.098458707005011359
s(I41
I933
tp363
F28.900636655835633
s(I1041
I298
tp364
F6.7129960476318811
s(I409
I137
tp365
F74.099616444407857
s(I559
I1041
tp366
F17.648564703094117
s(I485
I41
tp367
F12.664084969947631
s(I106
I837
tp368
F91.786174285093239
s(I112
I41
tp369
F97.806834670663591
s(I366
I345
tp370
F14.801840220454675
s(I595
I1041
tp371
F23.32750743656602
s(I1308
I41
tp372
F33.787984832389448
s(I478
I541
tp373
F25.39447356084289
s(I279
I41
tp374
F86.154899756040479
s(I781
I1041
tp375
F0.98143702596205085
s(I541
I1324
tp376
F67.444798630203877
s(I1315
I41
tp377
F37.142696815861029
s(I340
I41
tp378
F83.807507943524129
s(I840
I1041
tp379
F53.769553487156863
s(I41
I313
tp380
F97.419647691159142
s(I41
I140
tp381
F21.492998642584872
s(I41
I583
tp382
F28.662275808435211
s(I1041
I307
tp383
F61.534600106438432
s(I1447
I409
tp384
F6.880254544905295
s(I32
I20
tp385
F32.3254544907876
s(I539
I1020
tp386
F37.094482127474926
s(I1211
I409
tp387
F64.758928279538722
s(I1009
I468
tp388
F57.715279490556313
s(I41
I249
tp389
F17.444069781829331
s(I41
I330
tp390
F72.069588636699706
s(I41
I797
tp391
F98.793766047317149
s(I1041
I460
tp392
F73.259179509266417
s(I1041
I250
tp393
F5.7721070033226241
s(I909
I1160
tp394
F51.729211225470614
s(I909
I1067
tp395
F72.145227082486514
s(I396
I41
tp396
F27.822888699806605
s(I1041
I96
tp397
F9.2489412131459439
s(I1399
I41
tp398
F77.309368844851164
s(I41
I475
tp399
F82.928915082195715
s(I41
I942
tp400
F90.090345432429885
s(I541
I1204
tp401
F96.401423353767129
s(I1463
I41
tp402
F48.342911077962491
s(I361
I822
tp403
F13.19446011607609
s(I1026
I20
tp404
F9.7092043710033327
s(I714
I1337
tp405
F21.62794705243769
s(I927
I1041
tp406
F54.217129164461177
s(I787
I1337
tp407
F25.288030278745655
s(I1490
I41
tp408
F35.974283405625954
s(I461
I41
tp409
F55.099411665483188
s(I963
I1041
tp410
F89.381574152415041
s(I1041
I238
tp411
F21.492119760661986
s(I541
I1317
tp412
F68.052459949377166
s(I266
I41
tp413
F57.124070773979341
s(I909
I1281
tp414
F88.820807810755269
s(I409
I675
tp415
F30.633057507348525
s(I20
I24
tp416
F47.195889827891747
s(I41
I290
tp417
F40.065096416368185
s(I41
I245
tp418
F88.350331063206085
s(I1291
I41
tp419
F80.250249097857264
s(I316
I41
tp420
F5.5836685534168424
s(I62
I541
tp421
F28.05181268287248
s(I541
I1494
tp422
F92.297777993356021
s(I1478
I468
tp423
F40.847930776838503
s(I72
I541
tp424
F39.699170990461596
s(I858
I1041
tp425
F98.691183263226606
s(I505
I1126
tp426
F16.326088571807706
s(I541
I1090
tp427
F18.753795027404031
s(I41
I435
tp428
F83.412535555033756
s(I3
I516
tp429
F84.008469428769743
s(I337
I178
tp430
F62.916868013895446
s(I1041
I453
tp431
F26.913375833230191
s(I563
I1041
tp432
F45.265999812804957
s(I1020
I30
tp433
F5.5929383268541351
s(I1154
I41
tp434
F53.764426260022667
s(I381
I41
tp435
F11.960959878448474
s(I825
I1337
tp436
F70.910515733088758
s(I41
I476
tp437
F2.0862073781935497
s(I702
I1041
tp438
F61.276647465590472
s(I541
I1165
tp439
F9.8252058342695907
s(I1361
I41
tp440
F81.50210294935799
s(I1041
I486
tp441
F1.4021690031721268
s(I235
I345
tp442
F12.604352849540025
s(I916
I1041
tp443
F21.693983120016835
s(I1272
I41
tp444
F73.101681651915172
s(I1377
I41
tp445
F74.727107498899841
s(I1041
I231
tp446
F87.113243328722461
s(I541
I1342
tp447
F51.699141159598113
s(I964
I1041
tp448
F6.4990733001410339
s(I837
I1325
tp449
F70.699826585980119
s(I308
I541
tp450
F45.24886521922776
s(I41
I299
tp451
F5.940732563083662
s(I3
I508
tp452
F60.714397787697429
s(I498
I41
tp453
F82.945586496782781
s(I981
I1041
tp454
F59.408491817681572
s(I541
I1455
tp455
F10.623416700629139
s(I1081
I41
tp456
F64.541994922268188
s(I909
I1419
tp457
F11.84037418622037
s(I89
I861
tp458
F8.0939363286946513
s(I14
I626
tp459
F90.793931235552989
s(I41
I783
tp460
F54.449750940210606
s(I1328
I41
tp461
F38.421121575167746
s(I478
I468
tp462
F34.206043582515868
s(I409
I243
tp463
F30.067651778617222
s(I1041
I446
tp464
F40.00720924350054
s(I541
I1045
tp465
F92.665506019235337
s(I1041
I385
tp466
F3.7905240221179581
s(I809
I1041
tp467
F73.664704270207068
s(I1087
I468
tp468
F30.189624963639218
s(I41
I453
tp469
F61.125520390344278
s(I41
I920
tp470
F4.1456541662025952
s(I544
I1041
tp471
F81.586078902589378
s(I1126
I300
tp472
F31.051387457838974
s(I1409
I345
tp473
F66.325636656305491
s(I162
I41
tp474
F85.32567422478408
s(I113
I541
tp475
F83.385220420661867
s(I1214
I41
tp476
F88.954076643719176
s(I114
I541
tp477
F41.63523324890285
s(I6
I126
tp478
F16.360044368365145
s(I409
I13
tp479
F15.324563939977232
s(I1041
I216
tp480
F57.200685086427072
s(I211
I409
tp481
F79.435952278344388
s(I503
I1009
tp482
F87.829307027572838
s(I4
I626
tp483
F54.896926771029619
s(I1337
I482
tp484
F29.782218928970938
s(I126
I4
tp485
F52.642705183692328
s(I398
I41
tp486
F88.510755129415031
s(I1041
I175
tp487
F29.682802130152108
s(I41
I231
tp488
F71.993520440826643
s(I1041
I294
tp489
F44.535051785679791
s(I1343
I468
tp490
F58.058556744932034
s(I541
I1448
tp491
F63.765475292345506
s(I1279
I41
tp492
F81.55025830438521
s(I909
I1017
tp493
F35.671296718306024
s(I982
I1041
tp494
F16.876898440348764
s(I235
I41
tp495
F19.158948436284629
s(I41
I445
tp496
F67.047532448707827
s(I41
I880
tp497
F46.268389705016546
s(I41
I715
tp498
F61.452713081277864
s(I1057
I41
tp499
F63.58105116256715
s(I463
I41
tp500
F63.923796461569339
s(I541
I1262
tp501
F47.022351057399995
s(I1134
I41
tp502
F92.139345552001132
s(I392
I41
tp503
F92.235835777649172
s(I41
I462
tp504
F32.199429692622736
s(I349
I541
tp505
F5.4735938055015527
s(I810
I1041
tp506
F54.499716440261324
s(I791
I1041
tp507
F32.049933181147374
s(I1218
I41
tp508
F70.330629227643271
s(I154
I541
tp509
F90.032853295554474
s(I375
I541
tp510
F68.699700005850843
s(I105
I41
tp511
F45.664051209793456
s(I468
I11
tp512
F48.703224680018721
s(I180
I541
tp513
F44.095007397500893
s(I862
I1041
tp514
F2.7155723599125325
s(I827
I1041
tp515
F79.260607702657936
s(I1287
I337
tp516
F33.790368911706928
s(I1037
I20
tp517
F76.853926127055843
s(I409
I419
tp518
F78.06593016496727
s(I337
I78
tp519
F47.749469466099285
s(I541
I1328
tp520
F21.031292207079279
s(I1041
I274
tp521
F60.135135404051418
s(I1345
I366
tp522
F66.498069305114711
s(I837
I1311
tp523
F13.362133849077285
s(I41
I277
tp524
F99.128526113517353
s(I442
I541
tp525
F94.321399584273323
s(I41
I675
tp526
F65.318960052403341
s(I409
I332
tp527
F44.412931619864992
s(I671
I1041
tp528
F79.476771686620779
s(I541
I1142
tp529
F46.75722205549976
s(I541
I1441
tp530
F68.852649581697847
s(I1379
I409
tp531
F60.361873961505808
s(I1409
I137
tp532
F89.907130882131554
s(I650
I1041
tp533
F82.333123224638243
s(I455
I541
tp534
F59.270229201740321
s(I41
I422
tp535
F25.756707289516822
s(I41
I716
tp536
F40.136482036015821
s(I1255
I41
tp537
F13.128930700289487
s(I260
I541
tp538
F74.122247673719102
s(I389
I41
tp539
F5.305560785774377
s(I541
I1255
tp540
F51.275740675114037
s(I1060
I41
tp541
F12.440072133502367
s(I909
I1038
tp542
F19.734166888864614
s(I439
I41
tp543
F35.408792879562043
s(I1110
I41
tp544
F19.02322077866463
s(I1475
I41
tp545
F44.807179131474584
s(I409
I110
tp546
F18.628537771503396
s(I1409
I447
tp547
F15.840097434929357
s(I20
I528
tp548
F93.531738462998788
s(I626
I1175
tp549
F69.94986420333835
s(I1125
I41
tp550
F61.577255242289795
s(I41
I64
tp551
F52.483057528131937
s(I828
I1041
tp552
F6.9984401247658479
s(I81
I41
tp553
F20.799229270629549
s(I9
I468
tp554
F26.162657387139511
s(I925
I1041
tp555
F87.051674864916777
s(I541
I1289
tp556
F26.312421371871565
s(I1409
I17
tp557
F77.449318491393299
s(I837
I1304
tp558
F93.542195487698947
s(I864
I1041
tp559
F18.08676193102221
s(I309
I41
tp560
F54.596964680150926
s(I41
I286
tp561
F45.442790932742774
s(I1041
I272
tp562
F9.9911808420751207
s(I541
I1103
tp563
F23.221839530078935
s(I282
I845
tp564
F6.227836227888317
s(I656
I1041
tp565
F92.593645891885885
s(I893
I1041
tp566
F5.6668660223121776
s(I418
I541
tp567
F50.538515577140416
s(I1395
I41
tp568
F56.480412984433904
s(I221
I541
tp569
F65.878270071587181
s(I41
I431
tp570
F56.125514225680675
s(I41
I866
tp571
F92.723640619666128
s(I1471
I41
tp572
F24.896136296804137
s(I708
I1041
tp573
F55.115854564900324
s(I673
I1041
tp574
F96.026877833922256
s(I541
I1248
tp575
F15.095409568313055
s(I1020
I34
tp576
F65.917756112499688
s(I1337
I283
tp577
F71.199291838937768
s(I345
I366
tp578
F73.129755758478296
s(I41
I56
tp579
F99.458370220964383
s(I522
I1020
tp580
F56.339611320587032
s(I426
I41
tp581
F72.650185650215064
s(I100
I541
tp582
F74.600533122503691
s(I541
I1169
tp583
F5.0410788300664251
s(I279
I541
tp584
F43.229452894564346
s(I179
I541
tp585
F40.980816528675987
s(I1451
I41
tp586
F88.108936790136767
s(I476
I41
tp587
F26.747029185321068
s(I331
I541
tp588
F94.267528299142214
s(I961
I1041
tp589
F18.159631025407073
s(I1041
I376
tp590
F0.99543614609596265
s(I483
I41
tp591
F61.472368067707542
s(I541
I1282
tp592
F82.204775470638467
s(I301
I541
tp593
F73.229424376402037
s(I1409
I106
tp594
F49.196769135402022
s(I1041
I390
tp595
F7.6134344788057469
s(I362
I541
tp596
F26.054223524444652
s(I327
I541
tp597
F23.998623490840043
s(I1115
I41
tp598
F57.717974625397552
s(I41
I218
tp599
F49.422836027929662
s(I340
I541
tp600
F15.977891063127647
s(I520
I1027
tp601
F90.51823581574395
s(I1190
I41
tp602
F90.780562414127857
s(I541
I1096
tp603
F92.988538895658465
s(I467
I541
tp604
F41.967639839847884
s(I285
I41
tp605
F32.095778913283425
s(I819
I1041
tp606
F46.156376672469122
s(I1321
I41
tp607
F25.339155864500086
s(I346
I41
tp608
F67.272976696752266
s(I60
I541
tp609
F80.719421576738455
s(I41
I400
tp610
F15.413608112051547
s(I1040
I20
tp611
F27.532047497721578
s(I1041
I410
tp612
F62.517960322030376
s(I1441
I468
tp613
F52.457189074201004
s(I1371
I41
tp614
F53.549181293682636
s(I674
I1041
tp615
F90.085532691517841
s(I1176
I41
tp616
F55.640176686749129
s(I147
I41
tp617
F18.296722440645585
s(I733
I1041
tp618
F16.518992602911986
s(I1381
I41
tp619
F55.97854128343144
s(I726
I1041
tp620
F42.636733847177943
s(I541
I1386
tp621
F66.252552751999502
s(I654
I1041
tp622
F47.712926152353852
s(I1041
I289
tp623
F49.679978337790075
s(I776
I1041
tp624
F83.6483825787179
s(I402
I41
tp625
F44.495877232995355
s(I1156
I41
tp626
F36.047935469852362
s(I1041
I369
tp627
F72.416319417736801
s(I1041
I196
tp628
F48.590910175609672
s(I541
I1307
tp629
F6.9589697968161834
s(I945
I1041
tp630
F61.761227982206577
s(I531
I1020
tp631
F63.815404730369437
s(I626
I1017
tp632
F21.197034455137164
s(I845
I1475
tp633
F98.064347181096196
s(I1488
I41
tp634
F8.3231718722446395
s(I41
I264
tp635
F76.025035149856933
s(I41
I195
tp636
F29.597565305546059
s(I520
I1034
tp637
F47.796757183428682
s(I943
I1409
tp638
F81.284954129640369
s(I264
I41
tp639
F77.939677675960198
s(I541
I1089
tp640
F3.6892202354594006
s(I541
I1420
tp641
F56.819409763496033
s(I8
I968
tp642
F39.729012914142395
s(I1138
I41
tp643
F55.898948300464326
s(I583
I1041
tp644
F95.606828296724274
s(I364
I541
tp645
F69.899089944767695
s(I1409
I339
tp646
F97.774280402646667
s(I41
I409
tp647
F40.360366671351279
s(I41
I876
tp648
F86.819815256502068
s(I443
I541
tp649
F75.35581477284363
s(I152
I361
tp650
F79.284414795214687
s(I619
I1041
tp651
F13.450384135832216
s(I541
I1266
tp652
F50.480506129869021
s(I1297
I41
tp653
F98.466272457841214
s(I322
I41
tp654
F73.390311613166361
s(I51
I541
tp655
F50.357633169238746
s(I1003
I8
tp656
F57.55345391734572
s(I1374
I41
tp657
F83.815578829107608
s(I329
I41
tp658
F25.264926294399693
s(I1106
I337
tp659
F68.241411697288754
s(I409
I65
tp660
F1.0599531990060584
s(I541
I1379
tp661
F80.579331668950331
s(I1152
I41
tp662
F72.352294711947167
s(I379
I41
tp663
F94.364669659158579
s(I1409
I446
tp664
F8.1417450652102588
s(I184
I41
tp665
F59.127085445130525
s(I41
I187
tp666
F97.602187359244866
s(I665
I1041
tp667
F52.140884532681341
s(I8
I503
tp668
F88.761762797114358
s(I409
I447
tp669
F21.120367111471662
s(I1041
I362
tp670
F0.35140707591151399
s(I332
I361
tp671
F9.3101353069264032
s(I896
I1041
tp672
F58.864385328205373
s(I1465
I41
tp673
F86.311019104958845
s(I626
I1008
tp674
F27.162482582877967
s(I667
I1041
tp675
F7.4770965418623607
s(I41
I369
tp676
F27.864351990226755
s(I41
I196
tp677
F19.858643716027359
s(I131
I541
tp678
F4.0018903974799347
s(I1235
I345
tp679
F28.304971294715809
s(I249
I41
tp680
F45.737656583217479
s(I169
I541
tp681
F66.493484518849101
s(I572
I1041
tp682
F4.9544850465624073
s(I496
I41
tp683
F42.165880146608103
s(I41
I853
tp684
F49.357992986858889
s(I540
I1020
tp685
F86.569781324731949
s(I582
I1041
tp686
F51.956610255410354
s(I541
I1227
tp687
F94.782733710437284
s(I1041
I378
tp688
F91.60798859462696
s(I837
I1493
tp689
F70.336845289746464
s(I620
I1041
tp690
F68.104694892796829
s(I1103
I41
tp691
F69.273030007534302
s(I41
I998
tp692
F48.19160849512761
s(I504
I1003
tp693
F36.432360547663542
s(I78
I541
tp694
F39.576123528055597
s(I637
I1041
tp695
F30.128175283036551
s(I1350
I41
tp696
F90.354947274338798
s(I139
I337
tp697
F3.7869302842645003
s(I88
I541
tp698
F50.972175801813854
s(I305
I41
tp699
F1.8047901724325466
s(I106
I337
tp700
F45.189539961016187
s(I1041
I405
tp701
F20.825709823955417
s(I382
I41
tp702
F10.103796806052156
s(I37
I909
tp703
F54.401457680329592
s(I210
I541
tp704
F83.831308960058507
s(I1041
I355
tp705
F96.806725187526553
s(I209
I541
tp706
F96.921248993605843
s(I160
I41
tp707
F25.890714460640496
s(I289
I541
tp708
F44.411725201602678
s(I366
I541
tp709
F26.883769129178226
s(I1159
I41
tp710
F98.776143145490352
s(I41
I378
tp711
F26.8731254169276
s(I41
I205
tp712
F3.9710806713002533
s(I41
I640
tp713
F85.482567846582882
s(I1220
I41
tp714
F41.766759172375103
s(I337
I361
tp715
F49.690445071570366
s(I191
I41
tp716
F84.870502127175243
s(I541
I1438
tp717
F52.411538115230037
s(I577
I1041
tp718
F72.631945583099679
s(I1345
I476
tp719
F76.617593822110493
s(I38
I409
tp720
F57.577924667432256
s(I41
I395
tp721
F16.004113168315961
s(I41
I862
tp722
F50.447654985561265
s(I225
I41
tp723
F30.102694481544333
s(I541
I1218
tp724
F30.684799880442736
s(I337
I250
tp725
F99.267140865131054
s(I46
I41
tp726
F85.204935595910939
s(I235
I541
tp727
F5.0058001672533381
s(I1166
I41
tp728
F7.215284521858278
s(I1003
I6
tp729
F97.417735610085671
s(I235
I845
tp730
F68.745336174610799
s(I41
I687
tp731
F58.12799976226718
s(I446
I541
tp732
F99.550717376158886
s(I395
I541
tp733
F79.314507841607551
s(I233
I541
tp734
F7.8848024181183973
s(I456
I541
tp735
F86.714208348189899
s(I579
I1041
tp736
F69.3535591418362
s(I111
I41
tp737
F64.641079433686329
s(I808
I1041
tp738
F53.46667123285134
s(I41
I165
tp739
F57.986989126511986
s(I1235
I41
tp740
F97.694353218582208
s(I611
I1041
tp741
F0.56931984906912758
s(I1041
I356
tp742
F28.680648784241459
s(I409
I567
tp743
F98.420954124230107
s(I358
I41
tp744
F42.735194779279375
s(I41
I356
tp745
F27.015885958583731
s(I41
I355
tp746
F34.873818145936127
s(I41
I822
tp747
F30.853517233666828
s(I541
I1068
tp748
F59.966413451099911
s(I541
I1431
tp749
F60.660359813148069
s(I3
I18
tp750
F94.300481718303857
s(I1196
I41
tp751
F26.297906492731173
s(I37
I861
tp752
F50.992494374288356
s(I41
I396
tp753
F60.911899479397249
s(I167
I41
tp754
F64.280199368283576
s(I1110
I409
tp755
F13.862455449113288
s(I228
I41
tp756
F69.200658555746969
s(I541
I1245
tp757
F94.336703250773084
s(I11
I126
tp758
F29.814608057127924
s(I323
I41
tp759
F94.570283647819835
s(I16
I3
tp760
F85.483851965561499
s(I1409
I5
tp761
F62.207198989976021
s(I625
I1041
tp762
F43.412146491533697
s(I41
I976
tp763
F74.636147794292356
s(I387
I41
tp764
F52.284152266938499
s(I1409
I8
tp765
F77.896792841111349
s(I541
I1358
tp766
F71.958830325374819
s(I1076
I41
tp767
F82.696045375276483
s(I931
I1041
tp768
F25.280614077249851
s(I1337
I425
tp769
F96.743752723005542
s(I1066
I41
tp770
F80.391558272999092
s(I41
I174
tp771
F12.193416781070709
s(I909
I1293
tp772
F71.625903888084864
s(I600
I1041
tp773
F77.942245804058501
s(I337
I925
tp774
F95.399429261474666
s(I1116
I41
tp775
F99.599847618111923
s(I786
I1041
tp776
F81.686133641311429
s(I87
I41
tp777
F46.363487083871746
s(I1123
I41
tp778
F13.332562882053811
s(I861
I1037
tp779
F8.4818941754778443
s(I441
I468
tp780
F63.678402038752161
s(I41
I831
tp781
F8.8763085654533729
s(I629
I1041
tp782
F45.98593369249916
s(I1041
I494
tp783
F34.449235747299745
s(I307
I41
tp784
F63.815357679589425
s(I517
I1003
tp785
F12.844738082747821
s(I497
I541
tp786
F45.981909025833914
s(I41
I840
tp787
F6.2144538000107215
s(I318
I541
tp788
F20.845199700579354
s(I337
I703
tp789
F35.756309340733196
s(I541
I1238
tp790
F56.8026179085088
s(I777
I1041
tp791
F40.768154259564817
s(I1409
I211
tp792
F62.428448571214169
s(I505
I1409
tp793
F5.5020302048169212
s(I1375
I409
tp794
F37.544953036446479
s(I204
I41
tp795
F83.388798686586043
s(I41
I985
tp796
F16.376579946547153
s(I541
I1351
tp797
F69.187178339857425
s(I1486
I41
tp798
F13.830404718912416
s(I471
I541
tp799
F80.69603299694063
s(I932
I1041
tp800
F45.773316897273006
s(I294
I41
tp801
F10.999295171684276
s(I115
I837
tp802
F79.041855520919185
s(I424
I41
tp803
F91.95276854959171
s(I1003
I17
tp804
F27.280551329293544
s(I337
I918
tp805
F84.036696963362473
s(I409
I513
tp806
F58.887995275919621
s(I1042
I41
tp807
F0.96503299693817546
s(I211
I909
tp808
F85.006177835381564
s(I968
I1041
tp809
F45.246011276124079
s(I949
I1041
tp810
F84.257963961590718
s(I1323
I41
tp811
F91.508563123361625
s(I409
I743
tp812
F60.553591567889484
s(I74
I41
tp813
F61.546434063026936
s(I41
I365
tp814
F2.0997962662512526
s(I1041
I487
tp815
F74.444084277382942
s(I1339
I41
tp816
F78.290253715235849
s(I997
I1041
tp817
F4.4002106176401323
s(I1006
I126
tp818
F73.146342269930642
s(I124
I41
tp819
F94.73144316498589
s(I489
I41
tp820
F38.313771691905373
s(I41
I945
tp821
F71.808428974843849
s(I1327
I41
tp822
F38.865455503510404
s(I283
I41
tp823
F59.268659137480959
s(I503
I1017
tp824
F80.300610286433695
s(I344
I41
tp825
F61.582251604793989
s(I41
I962
tp826
F34.079231931450678
s(I81
I541
tp827
F50.486280605600022
s(I409
I38
tp828
F14.924059757286646
s(I541
I1344
tp829
F50.292563743204369
s(I837
I1359
tp830
F19.772398764452305
s(I441
I968
tp831
F18.113350400650109
s(I153
I41
tp832
F84.324747787862947
s(I1041
I335
tp833
F13.621694022491138
s(I1041
I146
tp834
F67.299537765597634
s(I1444
I41
tp835
F24.213124105406802
s(I1141
I41
tp836
F72.983009084660821
s(I400
I41
tp837
F61.12475775797985
s(I475
I968
tp838
F71.247393959617071
s(I950
I1041
tp839
F62.946697556584006
s(I55
I541
tp840
F76.51364119336256
s(I41
I342
tp841
F75.782115514360257
s(I41
I809
tp842
F81.647200184940885
s(I41
I764
tp843
F5.8481820955404444
s(I443
I909
tp844
F53.548881616146303
s(I116
I541
tp845
F63.857617198145668
s(I409
I832
tp846
F3.4069153389242435
s(I1035
I20
tp847
F99.618524086283642
s(I50
I41
tp848
F4.6503637252323315
s(I567
I1409
tp849
F65.066386250662632
s(I14
I3
tp850
F6.6842887597579619
s(I36
I20
tp851
F25.415091413488845
s(I41
I487
tp852
F7.1435974160692357
s(I41
I954
tp853
F92.938896183215391
s(I465
I41
tp854
F39.190129142300776
s(I778
I1041
tp855
F86.295505084395046
s(I1136
I41
tp856
F91.30298118771924
s(I286
I41
tp857
F87.989965601472335
s(I343
I541
tp858
F35.305231071437923
s(I17
I126
tp859
F29.607166053253898
s(I1303
I41
tp860
F46.753875626306119
s(I148
I541
tp861
F4.8387295342156573
s(I830
I1041
tp862
F94.41994062264159
s(I41
I971
tp863
F48.467562191484845
s(I1364
I41
tp864
F82.531705220526987
s(I1038
I20
tp865
F5.5638742312264071
s(I320
I41
tp866
F40.621947683081586
s(I541
I1369
tp867
F68.402236882508788
s(I968
I1456
tp868
F2.3571034722442041
s(I1004
I3
tp869
F81.894777785522805
s(I843
I1041
tp870
F44.812973178495284
s(I386
I41
tp871
F17.804867346004784
s(I41
I596
tp872
F99.708459820690905
s(I351
I41
tp873
F86.742457713017828
s(I1041
I320
tp874
F18.552035459825667
s(I409
I538
tp875
F96.738100429446774
s(I541
I1482
tp876
F3.7512258645323593
s(I895
I1041
tp877
F36.252738621106531
s(I909
I1382
tp878
F92.523138002163293
s(I1173
I41
tp879
F19.169387021947294
s(I129
I41
tp880
F90.219647987372127
s(I41
I351
tp881
F65.752670582420166
s(I41
I786
tp882
F81.205764945581407
s(I206
I41
tp883
F1.5368103037602387
s(I423
I541
tp884
F38.825579528494401
s(I1420
I41
tp885
F81.044412486084155
s(I1041
I465
tp886
F69.628930533459382
s(I541
I1072
tp887
F58.199813077400776
s(I1342
I345
tp888
F18.382820601127303
s(I484
I541
tp889
F2.1366824172500909
s(I114
I41
tp890
F11.10497032762725
s(I41
I488
tp891
F49.288033950931762
s(I41
I931
tp892
F15.905724578999614
s(I134
I41
tp893
F30.456035556360618
s(I897
I1041
tp894
F21.455104051835072
s(I1074
I41
tp895
F60.107090933964045
s(I1041
I348
tp896
F5.6489696868510686
s(I1485
I41
tp897
F20.654397062863904
s(I975
I1345
tp898
F95.8018072504278
s(I41
I972
tp899
F52.004024483284553
s(I5
I3
tp900
F44.844427258997797
s(I409
I509
tp901
F12.275111924662552
s(I262
I41
tp902
F35.335336939154196
s(I1041
I243
tp903
F41.399819704873408
s(I541
I1362
tp904
F42.651661652072193
s(I1409
I293
tp905
F73.111250165372425
s(I345
I946
tp906
F43.07698375291077
s(I72
I41
tp907
F39.62547009987312
s(I1340
I41
tp908
F59.020413138581041
s(I132
I541
tp909
F0.86026706391779673
s(I41
I311
tp910
F90.837497863541813
s(I832
I1041
tp911
F8.8023182255709482
s(I37
I520
tp912
F54.716563146028733
s(I1041
I140
tp913
F44.616264143413872
s(I541
I1475
tp914
F9.1648131200132816
s(I1041
I342
tp915
F40.862308129656398
s(I1337
I131
tp916
F89.16817892290409
s(I327
I41
tp917
F37.767836242350313
s(I880
I1041
tp918
F33.952080697109757
s(I861
I1041
tp919
F99.45529522694963
s(I41
I320
tp920
F90.513412715699246
s(I41
I795
tp921
F64.769419600565783
s(I41
I750
tp922
F41.419401252562437
s(I189
I541
tp923
F81.723771959442075
s(I1317
I41
tp924
F71.716733596778397
s(I1041
I458
tp925
F2.0713364696691383
s(I1405
I41
tp926
F3.830171541083971
s(I676
I1041
tp927
F57.985366910501604
s(I641
I1041
tp928
F84.446830257779382
s(I1210
I41
tp929
F84.527151693025687
s(I182
I41
tp930
F50.445199067998189
s(I41
I465
tp931
F85.182775023535555
s(I41
I988
tp932
F1.1785383211398437
s(I460
I541
tp933
F55.480612807311488
s(I1348
I41
tp934
F16.296115359666874
s(I541
I1210
tp935
F31.657404275081124
s(I689
I1041
tp936
F63.930889351277607
s(I381
I541
tp937
F53.31987043184229
s(I68
I541
tp938
F90.41425168464194
s(I197
I41
tp939
F42.482193519097407
s(I163
I409
tp940
F39.790537834672548
s(I147
I541
tp941
F50.29029321624855
s(I741
I1041
tp942
F13.725818962280457
s(I541
I1491
tp943
F67.483805044145896
s(I409
I454
tp944
F0.77897865933704846
s(I409
I57
tp945
F68.463191324774868
s(I1041
I244
tp946
F58.025138383959465
s(I247
I41
tp947
F49.829995845014238
s(I52
I41
tp948
F29.662246598753718
s(I269
I541
tp949
F21.591300453363171
s(I476
I845
tp950
F60.495490353920246
s(I41
I312
tp951
F10.184897114083091
s(I41
I243
tp952
F53.346672643096007
s(I186
I541
tp953
F52.374208835037528
s(I409
I375
tp954
F82.093748521140981
s(I1041
I306
tp955
F84.987230553156095
s(I373
I409
tp956
F67.586381418382743
s(I909
I1432
tp957
F64.698808920681643
s(I787
I1041
tp958
F31.685956784289793
s(I41
I796
tp959
F72.828350588152929
s(I41
I727
tp960
F51.546046517123109
s(I1013
I126
tp961
F54.522205353263963
s(I117
I41
tp962
F45.902738052660553
s(I1195
I41
tp963
F71.745795149321978
s(I1041
I451
tp964
F18.325359725094337
s(I41
I932
tp965
F3.0816575699754045
s(I1197
I41
tp966
F24.307644561500176
s(I364
I41
tp967
F44.343875541956578
s(I149
I41
tp968
F90.049439280625165
s(I642
I1041
tp969
F14.402962747314707
s(I41
I941
tp970
F5.7621964912130785
s(I226
I541
tp971
F33.220032012006953
s(I1186
I41
tp972
F94.133246954463516
s(I139
I837
tp973
F3.3653512428075572
s(I1409
I158
tp974
F86.487864703006778
s(I694
I1041
tp975
F93.37107141386511
s(I894
I1041
tp976
F41.1986380680286
s(I1258
I41
tp977
F94.920051943014073
s(I173
I41
tp978
F72.260492946171411
s(I541
I1316
tp979
F33.681029263502438
s(I234
I41
tp980
F75.314177221191613
s(I1432
I41
tp981
F24.570617600436961
s(I1175
I126
tp982
F26.809411467708809
s(I1468
I228
tp983
F54.091594826334386
s(I20
I25
tp984
F66.778832437859066
s(I41
I289
tp985
F98.277642193114019
s(I41
I244
tp986
F74.676996827603659
s(I541
I1361
tp987
F26.693395105187246
s(I468
I289
tp988
F2.1082559283087443
s(I409
I947
tp989
F3.1189167584833477
s(I541
I1130
tp990
F77.423207553192412
s(I541
I1493
tp991
F39.133259784072152
s(I527
I1020
tp992
F91.712195675847099
s(I306
I541
tp993
F43.620588392548534
s(I41
I411
tp994
F70.634320570822169
s(I109
I541
tp995
F1.5463721916750162
s(I38
I909
tp996
F85.319293844071026
s(I551
I1041
tp997
F25.464973457993057
s(I41
I434
tp998
F25.638658908120647
s(I385
I541
tp999
F53.985748096975492
s(I41
I728
tp1000
F48.755268751282919
s(I462
I541
tp1001
F95.867791269044062
s(I411
I541
tp1002
F64.709657261827161
s(I249
I541
tp1003
F53.932583012617883
s(I1020
I31
tp1004
F68.625720156638536
s(I587
I1041
tp1005
F50.376401813352956
s(I472
I541
tp1006
F78.826562357182283
s(I93
I41
tp1007
F82.959073924141919
s(I41
I451
tp1008
F12.52149717033717
s(I41
I918
tp1009
F29.851786404775417
s(I1129
I41
tp1010
F85.878639554909839
s(I1041
I130
tp1011
F36.13390391492851
s(I504
I1126
tp1012
F62.829836491895698
s(I541
I1268
tp1013
F59.923119323615936
s(I41
I551
tp1014
F98.457900836291373
s(I5
I126
tp1015
F53.78897756572578
s(I409
I11
tp1016
F83.556435535064026
s(I889
I1041
tp1017
F40.304383968875456
s(I781
I1409
tp1018
F59.442009643663908
s(I1409
I13
tp1019
F48.948286265282306
s(I837
I1324
tp1020
F81.275205603341746
s(I20
I32
tp1021
F76.954892595889476
s(I41
I298
tp1022
F0.81660116049872
s(I41
I253
tp1023
F3.0509070437474972
s(I4
I503
tp1024
F67.570722790791351
s(I409
I321
tp1025
F45.75733131932521
s(I210
I41
tp1026
F41.862866983094605
s(I541
I1454
tp1027
F95.177425151144121
s(I430
I41
tp1028
F45.753505272889768
s(I468
I228
tp1029
F16.539491273018903
s(I1413
I41
tp1030
F89.89350187256268
s(I41
I443
tp1031
F45.958855082377227
s(I41
I782
tp1032
F29.870679088374285
s(I41
I705
tp1033
F87.054612462446272
s(I256
I541
tp1034
F87.528842414946709
s(I41
I281
tp1035
F91.817086857498779
s(I345
I282
tp1036
F36.790666531299756
s(I588
I1041
tp1037
F47.543849984060671
s(I1126
I5
tp1038
F44.729902789581601
s(I41
I452
tp1039
F86.662861570162192
s(I495
I41
tp1040
F44.227627590982507
s(I225
I541
tp1041
F45.268188277774669
s(I59
I541
tp1042
F87.153323958664814
s(I1041
I78
tp1043
F52.244435915635101
s(I541
I1157
tp1044
F27.27271240991065
s(I46
I541
tp1045
F42.07361501909692
s(I251
I541
tp1046
F91.105283659287366
s(I624
I1041
tp1047
F35.230760100936244
s(I909
I1110
tp1048
F83.867387091060436
s(I56
I541
tp1049
F3.9554981826274038
s(I1105
I41
tp1050
F15.529485021055189
s(I1468
I11
tp1051
F49.480963914479979
s(I1041
I223
tp1052
F79.394620386984542
s(I1333
I41
tp1053
F92.876287386865158
s(I178
I541
tp1054
F64.918311645480898
s(I126
I5
tp1055
F3.7550000186344468
s(I1468
I478
tp1056
F53.885276605820863
s(I257
I541
tp1057
F68.790555395821144
s(I3
I17
tp1058
F27.347446411190347
s(I334
I541
tp1059
F4.2468811757800147
s(I1041
I293
tp1060
F71.497960939699439
s(I541
I1148
tp1061
F83.269337590071487
s(I524
I1020
tp1062
F28.066635497021043
s(I909
I1016
tp1063
F61.38484866826559
s(I14
I126
tp1064
F67.146115433410856
s(I1041
I46
tp1065
F74.596888596722295
s(I41
I444
tp1066
F50.873267212681895
s(I41
I887
tp1067
F87.258530871658962
s(I41
I714
tp1068
F33.096454818422153
s(I26
I520
tp1069
F10.644108260268958
s(I406
I41
tp1070
F43.229639444479496
s(I136
I541
tp1071
F39.209008003646041
s(I361
I37
tp1072
F26.764776751382314
s(I1243
I409
tp1073
F60.899646816287955
s(I955
I1041
tp1074
F99.411279675544947
s(I1079
I41
tp1075
F76.849725541622931
s(I541
I1069
tp1076
F52.736536640607369
s(I421
I41
tp1077
F34.747948045005273
s(I41
I896
tp1078
F69.587056112144012
s(I1041
I71
tp1079
F30.370069919348765
s(I48
I41
tp1080
F11.454777748772438
s(I1036
I20
tp1081
F84.742883837030377
s(I414
I541
tp1082
F88.125544236036788
s(I471
I41
tp1083
F43.110998193496073
s(I276
I41
tp1084
F58.607493156911787
s(I541
I1253
tp1085
F62.586796578954164
s(I375
I909
tp1086
F53.755334242667516
s(I837
I1131
tp1087
F32.049733502933286
s(I1041
I457
tp1088
F58.899566815570225
s(I1041
I133
tp1089
F20.596171760046222
s(I113
I41
tp1090
F83.264299412371628
s(I41
I239
tp1091
F49.269546770775577
s(I41
I674
tp1092
F65.149272433255732
s(I1309
I41
tp1093
F62.720277238799348
s(I409
I339
tp1094
F79.786842474240672
s(I1041
I286
tp1095
F79.010098770876454
s(I541
I1141
tp1096
F54.452997341586453
s(I541
I1440
tp1097
F14.898947951645313
s(I373
I909
tp1098
F45.869563642697244
s(I341
I41
tp1099
F58.727676075501357
s(I909
I1468
tp1100
F70.588085207057958
s(I1041
I228
tp1101
F94.808261872514294
s(I1117
I41
tp1102
F10.622026148219632
s(I41
I421
tp1103
F13.957266163371839
s(I41
I888
tp1104
F39.949547036795877
s(I1038
I409
tp1105
F33.098345394320674
s(I409
I252
tp1106
F59.634780049872781
s(I1041
I431
tp1107
F90.775430358579598
s(I1020
I36
tp1108
F58.513722702962944
s(I1047
I41
tp1109
F93.63851171841992
s(I909
I1037
tp1110
F1.2490969481711023
s(I345
I356
tp1111
F52.770081701233337
s(I1468
I471
tp1112
F61.088223037210113
s(I1167
I41
tp1113
F4.4786190818993044
s(I41
I905
tp1114
F74.641393464845123
s(I1041
I56
tp1115
F10.165515641912892
s(I541
I1175
tp1116
F32.118952860035868
s(I1426
I41
tp1117
F89.472504327733859
s(I468
I456
tp1118
F46.898480960519521
s(I397
I41
tp1119
F78.988481835778202
s(I337
I639
tp1120
F21.351752899744135
s(I20
I529
tp1121
F11.686931569145209
s(I837
I1203
tp1122
F81.380483951402908
s(I458
I41
tp1123
F54.855057460346487
s(I41
I71
tp1124
F14.735475264784492
s(I27
I20
tp1125
F22.119787964766058
s(I1041
I201
tp1126
F83.470917974264992
s(I541
I1288
tp1127
F37.36588526907866
s(I568
I1041
tp1128
F91.485899432667551
s(I177
I541
tp1129
F83.253326987769
s(I837
I1228
tp1130
F83.720856962611236
s(I837
I1287
tp1131
F28.57987624419134
s(I1041
I139
tp1132
F30.863603089179282
s(I254
I541
tp1133
F26.011868868614052
s(I203
I541
tp1134
F4.1344994230967158
s(I1288
I41
tp1135
F46.398924307272914
s(I557
I1041
tp1136
F8.9139451596215284
s(I616
I1041
tp1137
F31.915298269425762
s(I541
I1465
tp1138
F14.758245130875103
s(I1065
I409
tp1139
F30.804685348440298
s(I720
I1041
tp1140
F22.551618230043491
s(I41
I430
tp1141
F34.764579267808436
s(I41
I865
tp1142
F6.4995151034128451
s(I1346
I41
tp1143
F58.32601334402171
s(I1361
I37
tp1144
F9.2230387569059875
s(I1396
I345
tp1145
F91.233373627739198
s(I317
I41
tp1146
F14.213347393352215
s(I1353
I41
tp1147
F79.344005885317799
s(I378
I41
tp1148
F13.050403995090143
s(I1471
I468
tp1149
F57.196290031024809
s(I1070
I41
tp1150
F30.413199401022204
s(I541
I1168
tp1151
F78.267261296844978
s(I1208
I41
tp1152
F81.576002500658646
s(I1041
I290
tp1153
F80.383078758670194
s(I468
I471
tp1154
F68.570529079263054
s(I909
I1175
tp1155
F68.0434674829703
s(I126
I175
tp1156
F9.6783527616689398
s(I20
I536
tp1157
F83.308068481306847
s(I41
I72
tp1158
F70.350927839598796
s(I439
I541
tp1159
F39.734639785422019
s(I900
I1041
tp1160
F83.806253403422488
s(I502
I1001
tp1161
F88.762515744154868
s(I154
I361
tp1162
F56.724722679650583
s(I1041
I383
tp1163
F20.035306262599139
s(I541
I1281
tp1164
F49.007443633405956
s(I1478
I409
tp1165
F29.508703896674138
s(I195
I41
tp1166
F61.901061404526359
s(I909
I1373
tp1167
F44.798355356818874
s(I434
I41
tp1168
F59.675790932484453
s(I936
I1041
tp1169
F61.770840507580637
s(I917
I1041
tp1170
F64.655506058189616
s(I606
I1337
tp1171
F10.307032308214737
s(I41
I262
tp1172
F87.620234592762941
s(I1273
I41
tp1173
F61.106910569686768
s(I41
I684
tp1174
F53.233874653417558
s(I520
I1028
tp1175
F15.360285650513516
s(I1041
I264
tp1176
F37.725893593167491
s(I541
I1458
tp1177
F30.280257709995961
s(I909
I1454
tp1178
F2.7877680875532329
s(I965
I1041
tp1179
F39.872779091405022
s(I41
I407
tp1180
F98.029303005344161
s(I1422
I41
tp1181
F94.765845361857131
s(I1041
I409
tp1182
F60.298368143721056
s(I541
I1272
tp1183
F43.651837842403317
s(I1293
I41
tp1184
F33.244036514833375
s(I1003
I18
tp1185
F31.099933963030622
s(I509
I1126
tp1186
F53.000689130973697
s(I115
I41
tp1187
F9.9572671033125619
s(I1329
I41
tp1188
F62.91807377549533
s(I354
I41
tp1189
F38.133883465836874
s(I49
I541
tp1190
F47.161085153426853
s(I1406
I41
tp1191
F81.161226239356836
s(I909
I1443
tp1192
F29.002770004604084
s(I468
I478
tp1193
F55.621079306417762
s(I126
I541
tp1194
F32.794673552333251
s(I1041
I411
tp1195
F31.199079184438038
s(I187
I909
tp1196
F59.773642583686339
s(I1184
I41
tp1197
F33.512894903808274
s(I337
I493
tp1198
F68.868916391699088
s(I1041
I368
tp1199
F97.893105934506679
s(I1041
I187
tp1200
F44.985919624742621
s(I541
I1306
tp1201
F1.8515344521395583
s(I242
I41
tp1202
F17.463558247147571
s(I837
I1214
tp1203
F17.653230306968894
s(I541
I1237
tp1204
F85.9470454822128
s(I626
I1014
tp1205
F74.039503137543193
s(I986
I1041
tp1206
F31.774303853866915
s(I41
I271
tp1207
F15.935188162298275
s(I967
I1041
tp1208
F39.888898586056975
s(I520
I1035
tp1209
F3.3087332627250499
s(I171
I41
tp1210
F14.372933490837358
s(I232
I41
tp1211
F17.409391399488182
s(I1041
I463
tp1212
F15.273287947040458
s(I909
I1447
tp1213
F9.6074840279681943
s(I126
I511
tp1214
F5.9107269033408238
s(I1249
I41
tp1215
F62.011138588669809
s(I954
I1041
tp1216
F73.536802669660688
s(I399
I41
tp1217
F29.204656015431716
s(I860
I1041
tp1218
F49.468690938444205
s(I41
I408
tp1219
F62.397958192570776
s(I41
I851
tp1220
F30.187443056234741
s(I606
I1409
tp1221
F39.535481143723004
s(I1041
I402
tp1222
F91.531929985831354
s(I285
I541
tp1223
F18.851615659195641
s(I837
I1488
tp1224
F61.971828831309807
s(I983
I1041
tp1225
F62.628928047195465
s(I680
I1041
tp1226
F47.405648723301866
s(I346
I541
tp1227
F88.274182653480466
s(I311
I541
tp1228
F0.63859921802646991
s(I798
I1041
tp1229
F99.455002741022952
s(I356
I345
tp1230
F5.0476979262800592
s(I1135
I41
tp1231
F85.383461454679548
s(I91
I41
tp1232
F25.681027186805959
s(I41
I186
tp1233
F41.418977214743315
s(I1382
I41
tp1234
F31.711579817751044
s(I811
I1041
tp1235
F51.457971158324597
s(I409
I446
tp1236
F94.189088786469043
s(I1041
I361
tp1237
F87.981683765062328
s(I541
I1299
tp1238
F34.265506109236355
s(I1041
I350
tp1239
F75.822600130627947
s(I1041
I284
tp1240
F75.58288051874348
s(I626
I1009
tp1241
F17.975937221809701
s(I863
I1041
tp1242
F36.485402027745685
s(I38
I20
tp1243
F93.55274417061959
s(I41
I368
tp1244
F97.501248924711319
s(I1041
I295
tp1245
F22.301828852614712
s(I968
I1343
tp1246
F43.788605326957821
s(I541
I1412
tp1247
F13.85824932179105
s(I391
I541
tp1248
F0.51279890764897029
s(I317
I541
tp1249
F24.782176211722206
s(I832
I1361
tp1250
F41.695950442316089
s(I845
I1356
tp1251
F81.259337471239405
s(I390
I541
tp1252
F35.624312749257136
s(I299
I541
tp1253
F94.5737239680019
s(I41
I385
tp1254
F30.026706730171526
s(I41
I852
tp1255
F27.649913169165409
s(I208
I41
tp1256
F57.404478099442166
s(I1041
I395
tp1257
F64.718000155931804
s(I541
I1226
tp1258
F93.943656708239899
s(I1041
I305
tp1259
F83.915434925917182
s(I554
I1041
tp1260
F35.959230703208021
s(I968
I1011
tp1261
F81.63730072194474
s(I1411
I41
tp1262
F17.925663572916093
s(I436
I41
tp1263
F8.1336799033890905
s(I19
I3
tp1264
F93.95374548209108
s(I41
I997
tp1265
F11.120301833597136
s(I378
I541
tp1266
F9.4394819593593979
s(I541
I1403
tp1267
F19.479027178175944
s(I1061
I41
tp1268
F20.38172673262234
s(I322
I541
tp1269
F41.364637753156195
s(I1409
I379
tp1270
F50.972954916560475
s(I125
I541
tp1271
F36.238834770655657
s(I1241
I41
tp1272
F11.89680888594139
s(I348
I541
tp1273
F80.147676109845449
s(I94
I41
tp1274
F8.7189660420693649
s(I41
I630
tp1275
F73.343133652191426
s(I9
I503
tp1276
F65.450737984001208
s(I800
I1041
tp1277
F38.321350981424452
s(I409
I557
tp1278
F81.110595794426033
s(I1409
I163
tp1279
F2.8855825939322233
s(I13
I626
tp1280
F19.971996641602384
s(I1389
I41
tp1281
F81.703371637868429
s(I41
I377
tp1282
F15.512295262545518
s(I41
I204
tp1283
F70.046907678091969
s(I921
I1041
tp1284
F48.49787142722446
s(I848
I1041
tp1285
F94.489624348990191
s(I829
I1041
tp1286
F1.6857695637254921
s(I409
I875
tp1287
F61.157538807298231
s(I541
I1106
tp1288
F48.229496720893962
s(I157
I541
tp1289
F88.201508880919505
s(I160
I409
tp1290
F47.654193071026683
s(I1439
I41
tp1291
F22.38208074998861
s(I644
I1041
tp1292
F89.527481834442113
s(I865
I1041
tp1293
F64.983589338984473
s(I41
I394
tp1294
F61.672993721887103
s(I41
I861
tp1295
F80.289697303346188
s(I795
I1041
tp1296
F0.9657704581014892
s(I1041
I396
tp1297
F53.311592662346165
s(I913
I1041
tp1298
F19.267477436144187
s(I428
I541
tp1299
F10.120016671094788
s(I468
I975
tp1300
F42.849598102691147
s(I231
I541
tp1301
F17.518383781392156
s(I1228
I41
tp1302
F27.631520095006699
s(I657
I1041
tp1303
F56.715051112856962
s(I511
I1003
tp1304
F3.5550036044150413
s(I41
I771
tp1305
F78.98959913137881
s(I371
I541
tp1306
F68.215231909167855
s(I60
I41
tp1307
F70.265709431696024
s(I541
I1396
tp1308
F57.010319837809007
s(I412
I41
tp1309
F51.95760180282241
s(I837
I1363
tp1310
F50.492067865833313
s(I1448
I41
tp1311
F77.203540086774538
s(I409
I610
tp1312
F29.197909752545826
s(I419
I41
tp1313
F33.499383860392115
s(I493
I541
tp1314
F44.569349410193752
s(I41
I639
tp1315
F27.586986891485932
s(I1041
I347
tp1316
F47.290061004524119
s(I10
I3
tp1317
F49.546045421701713
s(I1098
I41
tp1318
F99.32292479918641
s(I1311
I41
tp1319
F97.856387813371555
s(I896
I1345
tp1320
F15.610941478165962
s(I909
I1345
tp1321
F83.38199164088303
s(I70
I41
tp1322
F22.32293792949751
s(I161
I845
tp1323
F21.469582860962344
s(I41
I354
tp1324
F75.847634564529784
s(I477
I41
tp1325
F83.436668850126551
s(I41
I648
tp1326
F44.980027946697746
s(I1148
I41
tp1327
F38.278651188035539
s(I282
I41
tp1328
F20.427139538078542
s(I541
I1067
tp1329
F35.58580210950614
s(I541
I1430
tp1330
F57.465944019125814
s(I41
I499
tp1331
F88.208801188814476
s(I41
I838
tp1332
F42.619470115789049
s(I133
I541
tp1333
F96.027648257399392
s(I866
I1041
tp1334
F87.899501632762167
s(I1368
I41
tp1335
F27.945269534897356
s(I194
I541
tp1336
F71.675790737448764
s(I339
I41
tp1337
F77.443368569551623
s(I1409
I220
tp1338
F22.111900191644619
s(I1349
I41
tp1339
F6.993533022122989
s(I1244
I41
tp1340
F68.546908583705829
s(I110
I409
tp1341
F71.736275492348085
s(I245
I541
tp1342
F91.516388711346636
s(I1356
I345
tp1343
F14.518232059865866
s(I541
I1357
tp1344
F61.951383382548428
s(I1041
I365
tp1345
F23.886553455223424
s(I710
I1041
tp1346
F2.6057731484420366
s(I363
I541
tp1347
F40.743730830308458
s(I1177
I41
tp1348
F87.189033910071615
s(I41
I129
tp1349
F30.027275647048057
s(I41
I173
tp1350
F27.361906648256696
s(I1053
I41
tp1351
F33.908534286962308
s(I152
I541
tp1352
F99.6587305302521
s(I746
I1041
tp1353
F97.824548901037829
s(I727
I1041
tp1354
F74.128411330371549
s(I1424
I41
tp1355
F10.037428342789168
s(I395
I41
tp1356
F97.173973672832105
s(I456
I41
tp1357
F85.876057414517348
s(I274
I541
tp1358
F44.354682280809463
s(I41
I363
tp1359
F46.69404277308039
s(I41
I830
tp1360
F22.918908272181692
s(I41
I753
tp1361
F99.614194280022815
s(I25
I20
tp1362
F69.134127478525059
s(I300
I541
tp1363
F37.84172475069515
s(I1041
I493
tp1364
F80.040836275415188
s(I361
I537
tp1365
F61.15096646489615
s(I430
I541
tp1366
F51.787985798199628
s(I989
I1041
tp1367
F99.127104467274947
s(I555
I1041
tp1368
F26.228832209850427
s(I440
I541
tp1369
F22.112869697642935
s(I1126
I13
tp1370
F71.174703506892172
s(I258
I41
tp1371
F65.611438767306069
s(I41
I847
tp1372
F70.062739344909133
s(I792
I1041
tp1373
F26.931872475298658
s(I1310
I41
tp1374
F52.053579172283349
s(I265
I41
tp1375
F15.632573040815178
s(I1041
I83
tp1376
F75.890891233553575
s(I1344
I41
tp1377
F62.742842086174456
s(I315
I41
tp1378
F5.2617439767231993
s(I817
I1041
tp1379
F23.05456387173237
s(I409
I663
tp1380
F86.263234630515797
s(I376
I41
tp1381
F63.14139835292729
s(I622
I1361
tp1382
F95.755165676064337
s(I325
I837
tp1383
F9.0460413788222773
s(I1375
I41
tp1384
F22.678924979248293
s(I517
I1126
tp1385
F1.3553250726143551
s(I1007
I3
tp1386
F44.523411700266067
s(I1433
I41
tp1387
F11.581328427821036
s(I211
I345
tp1388
F69.382853803555449
s(I1153
I41
tp1389
F72.541347796622617
s(I345
I975
tp1390
F62.793250430904749
s(I1204
I41
tp1391
F54.259450810066724
s(I1230
I41
tp1392
F51.676786464269661
s(I185
I41
tp1393
F46.914223703745691
s(I41
I364
tp1394
F91.52873014524387
s(I41
I807
tp1395
F43.072625947531726
s(I41
I762
tp1396
F26.567190434308451
s(I1131
I41
tp1397
F12.863093982759255
s(I764
I1041
tp1398
F50.739430435360845
s(I432
I41
tp1399
F53.084030789512852
s(I909
I1476
tp1400
F3.1246293888095855
s(I361
I799
tp1401
F62.075639477940825
s(I1415
I41
tp1402
F23.957847496706041
s(I41
I944
tp1403
F80.782034463216362
s(I556
I1041
tp1404
F9.4178448687948659
s(I94
I541
tp1405
F88.868307169303279
s(I193
I541
tp1406
F32.833829963300062
s(I503
I1016
tp1407
F33.925946265188756
s(I219
I541
tp1408
F4.182869719165339
s(I592
I1041
tp1409
F79.236866455708281
s(I975
I1468
tp1410
F58.605840116061472
s(I1286
I41
tp1411
F15.074871373044941
s(I203
I337
tp1412
F56.398239309057331
s(I497
I41
tp1413
F8.941525976657827
s(I409
I37
tp1414
F43.308260892254204
s(I318
I41
tp1415
F63.797378866895073
s(I536
I1020
tp1416
F24.881748538961091
s(I621
I1041
tp1417
F46.666398386439297
s(I146
I541
tp1418
F6.7856212474779465
s(I1020
I35
tp1419
F44.002636682234765
s(I41
I159
tp1420
F38.641059338089157
s(I352
I41
tp1421
F36.752432417719838
s(I481
I541
tp1422
F18.815832681910283
s(I302
I541
tp1423
F3.3296558662122555
s(I1351
I41
tp1424
F68.837616536986602
s(I345
I976
tp1425
F29.319399715117779
s(I959
I1041
tp1426
F33.48555711864428
s(I383
I41
tp1427
F96.522044491615333
s(I41
I808
tp1428
F17.847720610414306
s(I41
I739
tp1429
F13.503063510577274
s(I5
I909
tp1430
F68.318863451318165
s(I409
I839
tp1431
F66.5156026028463
s(I541
I1078
tp1432
F78.950492407871437
s(I1206
I41
tp1433
F83.834316565187166
s(I360
I541
tp1434
F37.544069095182351
s(I161
I41
tp1435
F44.686307700576464
s(I679
I1041
tp1436
F48.926944016268124
s(I238
I41
tp1437
F28.116717892512078
s(I41
I486
tp1438
F74.521038649499914
s(I41
I953
tp1439
F65.186871866712821
s(I719
I1041
tp1440
F89.03969689622177
s(I1221
I41
tp1441
F21.433133857817445
s(I409
I752
tp1442
F98.826074624406047
s(I541
I1191
tp1443
F58.763776943890832
s(I1383
I41
tp1444
F49.688230485787102
s(I11
I503
tp1445
F6.9752919461677498
s(I821
I1409
tp1446
F36.36747954960893
s(I755
I1041
tp1447
F22.099026716471958
s(I1271
I41
tp1448
F53.942230995870808
s(I41
I970
tp1449
F17.208336117043789
s(I392
I541
tp1450
F99.362771089053197
s(I1041
I249
tp1451
F77.964870759472475
s(I541
I1368
tp1452
F18.860386338003977
s(I47
I41
tp1453
F7.5407313586508762
s(I909
I1300
tp1454
F41.213166228339858
s(I547
I1041
tp1455
F63.412036502661643
s(I538
I1020
tp1456
F90.215185000160474
s(I610
I1041
tp1457
F0.84881580801937639
s(I837
I1106
tp1458
F10.343356172326235
s(I1397
I409
tp1459
F82.568872813707316
s(I41
I128
tp1460
F18.94266331840182
s(I41
I603
tp1461
F63.927831553749449
s(I541
I1199
tp1462
F39.731352430169473
s(I1041
I327
tp1463
F95.456827511975035
s(I541
I1481
tp1464
F9.3895065778483726
s(I1041
I135
tp1465
F96.128294213830657
s(I345
I396
tp1466
F55.50258560430764
s(I9
I626
tp1467
F71.384006870056865
s(I1493
I41
tp1468
F27.244550257178002
s(I41
I350
tp1469
F52.861040295756155
s(I65
I541
tp1470
F24.658743376353655
s(I1041
I464
tp1471
F49.275351329469899
s(I1388
I41
tp1472
F12.95721111873711
s(I359
I41
tp1473
F11.571647239033112
s(I345
I842
tp1474
F93.69050544119591
s(I164
I41
tp1475
F63.095002041886303
s(I41
I495
tp1476
F68.91601174597487
s(I41
I930
tp1477
F81.357448707375127
s(I41
I902
tp1478
F91.433381178384323
s(I541
I1184
tp1479
F72.008581469888895
s(I1409
I65
tp1480
F58.354349465425962
s(I444
I541
tp1481
F25.915635293064764
s(I214
I41
tp1482
F19.606849170331053
s(I3
I9
tp1483
F2.4509289157341518
s(I796
I1041
tp1484
F11.403032995963102
s(I756
I1041
tp1485
F25.750573337967054
s(I409
I508
tp1486
F4.3416770574528751
s(I1446
I41
tp1487
F41.346164603872673
s(I229
I41
tp1488
F77.162130414515644
s(I520
I1031
tp1489
F64.393340595055093
s(I145
I541
tp1490
F79.400991462190134
s(I1052
I41
tp1491
F1.1031058258836768
s(I222
I541
tp1492
F95.541453375599033
s(I171
I541
tp1493
F48.59456983382001
s(I1041
I312
tp1494
F96.041420819222438
s(I1059
I41
tp1495
F99.793450632802603
s(I84
I41
tp1496
F83.930941126480676
s(I584
I1041
tp1497
F77.11693268175209
s(I565
I1041
tp1498
F15.958823925952515
s(I41
I327
tp1499
F65.835812950880239
s(I41
I794
tp1500
F71.185089909959274
s(I41
I749
tp1501
F24.863657980824115
s(I499
I41
tp1502
F82.83794339156772
s(I1331
I41
tp1503
F10.187094118447826
s(I601
I1041
tp1504
F25.516317571237458
s(I29
I520
tp1505
F73.895321499529246
s(I743
I1409
tp1506
F0.8979730476200154
s(I433
I541
tp1507
F12.556009004442325
s(I41
I464
tp1508
F57.826786990070687
s(I41
I939
tp1509
F72.511057561056205
s(I978
I1409
tp1510
F11.110270558006318
s(I1041
I90
tp1511
F95.537776026771354
s(I909
I1451
tp1512
F93.383941275185293
s(I140
I41
tp1513
F90.3169152882069
s(I3
I518
tp1514
F23.136613779200609
s(I41
I564
tp1515
F70.449980627729914
s(I1022
I20
tp1516
F61.419437922617384
s(I407
I541
tp1517
F27.43685787889968
s(I541
I1322
tp1518
F78.19242633894622
s(I968
I1471
tp1519
F78.989542447121309
s(I1337
I418
tp1520
F23.795374014417025
s(I126
I17
tp1521
F64.358051419187319
s(I1234
I41
tp1522
F71.341569062827432
s(I332
I861
tp1523
F49.970478370172401
s(I205
I41
tp1524
F79.36736656634605
s(I1454
I41
tp1525
F95.328963077693288
s(I934
I1041
tp1526
F18.890008964775451
s(I282
I345
tp1527
F10.780439782577577
s(I541
I1499
tp1528
F15.976999987874995
s(I1337
I139
tp1529
F36.705288938618921
s(I1122
I361
tp1530
F23.113421049995953
s(I933
I1041
tp1531
F88.402448694491852
s(I41
I328
tp1532
F48.393457821604045
s(I3
I513
tp1533
F87.328819798277195
s(I41
I726
tp1534
F0.52385825343936876
s(I425
I41
tp1535
F81.434265654365078
s(I1041
I450
tp1536
F70.101519419838738
s(I380
I541
tp1537
F2.9713248118015123
s(I969
I1041
tp1538
F52.740265330569244
s(I602
I1041
tp1539
F18.742026084031703
s(I1476
I409
tp1540
F79.421259808931197
s(I475
I41
tp1541
F78.038497655511875
s(I441
I361
tp1542
F18.301357621072256
s(I41
I940
tp1543
F20.65719053502718
s(I280
I41
tp1544
F3.2766010721230754
s(I337
I139
tp1545
F29.427517222545553
s(I1100
I41
tp1546
F72.394655464704826
s(I486
I541
tp1547
F54.863698591547859
s(I125
I41
tp1548
F18.504640002078432
s(I1041
I399
tp1549
F8.2574604386343999
s(I2
I1
tp1550
F91.805879960630563
s(I41
I106
tp1551
F41.85735629938182
s(I1041
I236
tp1552
F5.6913008693305951
s(I909
I1321
tp1553
F75.923903728363612
s(I1476
I41
tp1554
F54.373261236805114
s(I909
I1343
tp1555
F53.298595274661139
s(I345
I41
tp1556
F24.501846298850761
s(I20
I26
tp1557
F29.110607299985436
s(I41
I288
tp1558
F73.993328027535838
s(I41
I251
tp1559
F15.010921337362637
s(I41
I590
tp1560
F21.305639430037495
s(I1468
I459
tp1561
F49.310991891216695
s(I409
I946
tp1562
F65.036524948744756
s(I541
I1129
tp1563
F16.988266697383992
s(I541
I1492
tp1564
F11.058229840965328
s(I247
I541
tp1565
F52.182120991695477
s(I52
I541
tp1566
F83.351753810478328
s(I1345
I282
tp1567
F86.075737823831801
s(I1430
I41
tp1568
F35.736779706991165
s(I41
I433
tp1569
F80.644044624144854
s(I41
I772
tp1570
F16.447142168916574
s(I844
I1041
tp1571
F66.145586306388367
s(I1041
I443
tp1572
F43.447105977272237
s(I1020
I24
tp1573
F77.78989989632737
s(I1445
I41
tp1574
F74.492052487132199
s(I401
I41
tp1575
F68.076579785286711
s(I970
I1041
tp1576
F89.450132356431254
s(I951
I1041
tp1577
F33.300871385401557
s(I41
I450
tp1578
F70.878942061961311
s(I41
I917
tp1579
F67.108224330872147
s(I478
I41
tp1580
F64.828642535026077
s(I935
I1041
tp1581
F6.5081891981160211
s(I1495
I41
tp1582
F71.491971544688553
s(I987
I1041
tp1583
F95.412841873356214
s(I1300
I41
tp1584
F57.131642383403268
s(I256
I41
tp1585
F81.250585190434194
s(I19
I503
tp1586
F46.363757920537786
s(I41
I83
tp1587
F62.913894909095589
s(I409
I637
tp1588
F78.070257330886605
s(I541
I1340
tp1589
F79.930341625673307
s(I779
I1041
tp1590
F20.067100520713421
s(I134
I541
tp1591
F5.4751290100513161
s(I70
I541
tp1592
F92.321025261822115
s(I287
I41
tp1593
F19.218785899018965
s(I396
I845
tp1594
F85.857848674357783
s(I661
I1345
tp1595
F34.575260258279194
s(I20
I33
tp1596
F15.234005645891413
s(I41
I297
tp1597
F78.219564079130123
s(I3
I510
tp1598
F49.409839493821281
s(I41
I695
tp1599
F19.198295051758752
s(I152
I409
tp1600
F97.21069633359221
s(I541
I1470
tp1601
F8.8120832333824843
s(I1041
I291
tp1602
F80.948649044567901
s(I321
I41
tp1603
F77.22254506231036
s(I13
I126
tp1604
F57.794002587401835
s(I142
I41
tp1605
F60.10274850039611
s(I331
I861
tp1606
F82.237233631143184
s(I41
I442
tp1607
F99.33335707342944
s(I41
I781
tp1608
F43.546202161319805
s(I41
I704
tp1609
F87.492829933493994
s(I1041
I308
tp1610
F25.857529249390954
s(I1041
I444
tp1611
F37.253939445249443
s(I144
I541
tp1612
F19.751552800544601
s(I1020
I23
tp1613
F48.056930191650828
s(I227
I541
tp1614
F29.510463842695156
s(I386
I541
tp1615
F31.461860216177207
s(I509
I1003
tp1616
F90.150908005013832
s(I41
I459
tp1617
F50.512464408161726
s(I41
I926
tp1618
F96.396706520149479
s(I207
I41
tp1619
F9.8018102096397506
s(I132
I41
tp1620
F20.986649802436652
s(I485
I541
tp1621
F34.527829058513248
s(I1482
I41
tp1622
F47.294009206165065
s(I1409
I57
tp1623
F49.297910347754545
s(I454
I41
tp1624
F49.305821151917975
s(I20
I524
tp1625
F86.033982985192921
s(I988
I1041
tp1626
F34.482443158112531
s(I93
I541
tp1627
F29.199421519904977
s(I316
I541
tp1628
F34.613934988716466
s(I119
I541
tp1629
F97.048461860280938
s(I1409
I443
tp1630
F6.6905781952363856
s(I541
I1333
tp1631
F49.041506622943629
s(I768
I1041
tp1632
F85.028359774622956
s(I345
I909
tp1633
F94.74134156121589
s(I495
I541
tp1634
F33.653878421380824
s(I3
I16
tp1635
F36.500723426321322
s(I41
I696
tp1636
F30.719627956715478
s(I5
I503
tp1637
F57.841689949790485
s(I1041
I292
tp1638
F93.01492028827704
s(I263
I41
tp1639
F30.375542067816852
s(I541
I1446
tp1640
F13.555620720740647
s(I797
I1041
tp1641
F64.029243242609567
s(I324
I41
tp1642
F32.057580596958992
s(I1341
I41
tp1643
F38.543025467342659
s(I41
I886
tp1644
F3.858399631048004
s(I833
I1041
tp1645
F60.734174117213549
s(I1402
I41
tp1646
F31.620316028172823
s(I1016
I409
tp1647
F50.664614000094446
s(I1041
I437
tp1648
F7.715175209812319
s(I374
I41
tp1649
F60.800766109041341
s(I909
I1043
tp1650
F71.276953637492142
s(I396
I541
tp1651
F13.810142685489579
s(I199
I541
tp1652
F78.217103632348611
s(I881
I1041
tp1653
F8.0281232579928243
s(I41
I460
tp1654
F61.655456684850606
s(I41
I903
tp1655
F33.830992916071665
s(I133
I41
tp1656
F63.443303232767981
s(I1041
I373
tp1657
F69.151751811660986
s(I296
I541
tp1658
F9.3673535596902049
s(I677
I1041
tp1659
F82.080480747377123
s(I14
I409
tp1660
F92.908354224618606
s(I20
I523
tp1661
F55.063403646803863
s(I183
I41
tp1662
F49.803787214151605
s(I1187
I41
tp1663
F95.035786887138514
s(I244
I41
tp1664
F45.333226539257218
s(I1458
I41
tp1665
F54.11456592280166
s(I1041
I215
tp1666
F62.654815238226988
s(I541
I1294
tp1667
F35.834771357871716
s(I126
I13
tp1668
F57.521489363082601
s(I41
I283
tp1669
F63.533316800091619
s(I41
I238
tp1670
F28.100232154095963
s(I41
I673
tp1671
F81.29241889188161
s(I1041
I491
tp1672
F61.348946401585216
s(I971
I1468
tp1673
F2.2593300182874532
s(I541
I1140
tp1674
F66.214195230118705
s(I541
I1471
tp1675
F3.9866872756453176
s(I403
I541
tp1676
F18.681254402320889
s(I909
I1008
tp1677
F99.080666311113362
s(I287
I337
tp1678
F5.5694470925812141
s(I53
I41
tp1679
F93.167709788613678
s(I907
I1041
tp1680
F69.033191172932035
s(I41
I420
tp1681
F50.144617909319877
s(I41
I895
tp1682
F28.564813003972144
s(I25
I520
tp1683
F68.472899522195988
s(I831
I1041
tp1684
F97.532030103115801
s(I300
I41
tp1685
F95.711328739509241
s(I357
I541
tp1686
F66.436005740053119
s(I834
I1041
tp1687
F53.104107297468374
s(I1020
I37
tp1688
F13.962601940306818
s(I162
I541
tp1689
F87.464427259269229
s(I1139
I41
tp1690
F90.766814987024375
s(I537
I1361
tp1691
F94.456876484634563
s(I1378
I41
tp1692
F59.053465530336148
s(I203
I837
tp1693
F22.048760458670646
s(I886
I1041
tp1694
F61.37744468291222
s(I1475
I468
tp1695
F91.253067161726733
s(I541
I1174
tp1696
F14.187949511498621
s(I3
I14
tp1697
F83.728872963460262
s(I675
I1126
tp1698
F84.566751517990227
s(I236
I541
tp1699
F32.892164034681549
s(I20
I530
tp1700
F82.811983706390777
s(I678
I1041
tp1701
F88.378353516766211
s(I1126
I175
tp1702
F63.378932903403332
s(I170
I41
tp1703
F75.34994967495841
s(I315
I541
tp1704
F39.173881996830708
s(I1041
I200
tp1705
F28.067069498663955
s(I541
I1287
tp1706
F47.805591087290935
s(I376
I541
tp1707
F73.217615189118774
s(I529
I1020
tp1708
F4.2447952513641312
s(I1409
I373
tp1709
F81.417179070571393
s(I325
I337
tp1710
F12.055845229077566
s(I259
I541
tp1711
F97.372666820637662
s(I220
I41
tp1712
F19.019730060844541
s(I41
I284
tp1713
F7.4127786844858212
s(I41
I215
tp1714
F61.410739369625844
s(I1256
I41
tp1715
F54.879235527410749
s(I31
I20
tp1716
F53.325609834410137
s(I498
I541
tp1717
F19.615150820489358
s(I227
I41
tp1718
F68.606341701130205
s(I337
I982
tp1719
F79.424538668893902
s(I541
I1464
tp1720
F89.496136621401789
s(I211
I845
tp1721
F27.229722731957118
s(I268
I541
tp1722
F92.479227746316568
s(I1028
I20
tp1723
F77.270771682476408
s(I398
I541
tp1724
F15.666559327028951
s(I41
I429
tp1725
F13.668187129468246
s(I41
I864
tp1726
F62.860585032371674
s(I408
I541
tp1727
F86.017425777844096
s(I1041
I423
tp1728
F16.47456678398791
s(I541
I1278
tp1729
F9.6878517208648702
s(I638
I1041
tp1730
F75.93480735287234
s(I90
I41
tp1731
F65.199933340243462
s(I1432
I409
tp1732
F20.253029040946391
s(I978
I1468
tp1733
F99.829601646441105
s(I541
I1391
tp1734
F62.734888649782484
s(I785
I1041
tp1735
F79.10322179587456
s(I1441
I361
tp1736
F23.798082193349746
s(I565
I1409
tp1737
F39.85409083999096
s(I20
I537
tp1738
F41.09176362627516
s(I825
I1041
tp1739
F48.147643523427419
s(I187
I409
tp1740
F63.622312424349857
s(I1295
I41
tp1741
F54.51756312797643
s(I1041
I382
tp1742
F72.355037301913313
s(I1041
I193
tp1743
F22.828953668834838
s(I541
I1280
tp1744
F15.67274304208256
s(I615
I1337
tp1745
F0.50031593784579664
s(I541
I1336
tp1746
F54.751898327988258
s(I146
I41
tp1747
F84.239705588895291
s(I3
I7
tp1748
F3.1292436879558405
s(I41
I216
tp1749
F42.9355018353329
s(I41
I659
tp1750
F33.368589431871051
s(I520
I1029
tp1751
F43.410858451448888
s(I409
I919
tp1752
F19.702127757584698
s(I722
I1041
tp1753
F12.308162222605967
s(I541
I1457
tp1754
F85.072934008477503
s(I1147
I41
tp1755
F98.820542244952975
s(I732
I1041
tp1756
F48.624483744091094
s(I126
I800
tp1757
F81.0109064546441
s(I36
I520
tp1758
F89.610967733873849
s(I1232
I41
tp1759
F91.472069494645069
s(I203
I41
tp1760
F32.445200777321936
s(I41
I873
tp1761
F86.588046456888364
s(I976
I1409
tp1762
F69.133718543024798
s(I82
I541
tp1763
F70.173984773518768
s(I447
I909
tp1764
F91.975342295357024
s(I1460
I41
tp1765
F9.2537348444839402
s(I431
I41
tp1766
F44.584784069229109
s(I108
I541
tp1767
F4.970793443083366
s(I161
I541
tp1768
F98.585869226926775
s(I1434
I41
tp1769
F78.770903923227749
s(I238
I541
tp1770
F74.778142177408824
s(I187
I541
tp1771
F69.695095712714917
s(I560
I1041
tp1772
F35.187858770338352
s(I248
I541
tp1773
F55.255753098215536
s(I66
I41
tp1774
F68.481641148602563
s(I57
I541
tp1775
F92.694434836426666
s(I1021
I20
tp1776
F79.850224162288384
s(I126
I514
tp1777
F60.326860374798073
s(I73
I41
tp1778
F19.770084531558997
s(I589
I1041
tp1779
F70.026446737325983
s(I370
I541
tp1780
F43.005882219672685
s(I590
I1041
tp1781
F17.477763088218822
s(I1041
I186
tp1782
F71.873261414784139
s(I449
I541
tp1783
F24.801859246330693
s(I123
I41
tp1784
F77.68003435746256
s(I270
I541
tp1785
F2.3338257508040972
s(I878
I1041
tp1786
F47.368988721549101
s(I295
I541
tp1787
F68.648440026736949
s(I3
I12
tp1788
F19.861038518440534
s(I41
I193
tp1789
F56.930146070911704
s(I1012
I3
tp1790
F43.604519336371951
s(I520
I1036
tp1791
F32.291382947172231
s(I409
I293
tp1792
F39.035641708530399
s(I154
I861
tp1793
F92.001037784818934
s(I541
I1418
tp1794
F64.36355552711693
s(I468
I843
tp1795
F20.454496372807483
s(I267
I541
tp1796
F66.760705656694199
s(I909
I1446
tp1797
F85.236136756887504
s(I126
I508
tp1798
F2.6435224307528538
s(I494
I541
tp1799
F81.549519729460911
s(I328
I541
tp1800
F6.632973341078463
s(I41
I415
tp1801
F91.018392449101498
s(I41
I850
tp1802
F51.958909526014239
s(I1041
I401
tp1803
F51.770658957291118
s(I541
I1264
tp1804
F67.941823044731066
s(I687
I1041
tp1805
F93.949003798548844
s(I1003
I10
tp1806
F81.081411061898251
s(I1345
I475
tp1807
F70.021093702013147
s(I409
I541
tp1808
F75.191654955364982
s(I240
I41
tp1809
F92.32761897353133
s(I41
I995
tp1810
F72.655596037540249
s(I1044
I41
tp1811
F86.832017483663506
s(I407
I41
tp1812
F87.035378091335531
s(I1072
I41
tp1813
F92.545156066694432
s(I541
I1377
tp1814
F3.3915825757784401
s(I1443
I41
tp1815
F84.384518859877517
s(I468
I41
tp1816
F0.061419466400980394
s(I126
I517
tp1817
F99.308185233906798
s(I1041
I77
tp1818
F19.337319592542347
s(I1041
I439
tp1819
F16.090275502823992
s(I578
I1041
tp1820
F1.9066735593981532
s(I1041
I360
tp1821
F3.0848065257958468
s(I1041
I179
tp1822
F94.563370150108454
s(I541
I1298
tp1823
F59.868186190464733
s(I49
I41
tp1824
F49.506434162480105
s(I13
I3
tp1825
F80.947101880247331
s(I1345
I446
tp1826
F37.144101249899428
s(I126
I41
tp1827
F34.402049942138177
s(I626
I1006
tp1828
F1.5742164638686384
s(I293
I909
tp1829
F9.7281973556842321
s(I626
I1041
tp1830
F99.343379022603372
s(I41
I825
tp1831
F35.277612966269977
s(I277
I41
tp1832
F55.162560680161057
s(I337
I825
tp1833
F63.663503828861892
s(I1041
I129
tp1834
F21.846544610651165
s(I541
I1411
tp1835
F24.501653518538589
s(I1423
I41
tp1836
F76.691679265265961
s(I1003
I12
tp1837
F30.899853412857603
s(I110
I541
tp1838
F10.367106149721028
s(I1160
I409
tp1839
F16.620314843708563
s(I41
I384
tp1840
F41.063650452704735
s(I41
I859
tp1841
F81.61441953979994
s(I1126
I11
tp1842
F81.441398534881728
s(I1041
I394
tp1843
F96.831789456530885
s(I541
I1225
tp1844
F81.905926946996331
s(I1090
I41
tp1845
F17.653356157987478
s(I290
I541
tp1846
F66.745914384830073
s(I107
I541
tp1847
F61.37743614353861
s(I41
I996
tp1848
F36.08453816478535
s(I661
I1041
tp1849
F86.818975289798558
s(I541
I1426
tp1850
F7.459648520817086
s(I541
I1402
tp1851
F33.21423180962271
s(I394
I41
tp1852
F95.282051286927313
s(I909
I1158
tp1853
F33.908266316734434
s(I419
I909
tp1854
F76.829474138475547
s(I760
I1041
tp1855
F63.994483544738067
s(I41
I629
tp1856
F86.691638562565998
s(I1419
I41
tp1857
F55.049378243932487
s(I444
I41
tp1858
F10.113917189192655
s(I1041
I353
tp1859
F91.122030056108613
s(I190
I541
tp1860
F34.420327926643736
s(I139
I541
tp1861
F76.86159158255397
s(I1480
I41
tp1862
F87.539489132801364
s(I749
I1041
tp1863
F67.694670068982461
s(I1281
I41
tp1864
F99.268722830032146
s(I552
I1041
tp1865
F99.467878039371158
s(I41
I376
tp1866
F86.419855294417488
s(I1163
I409
tp1867
F61.919766669524748
s(I41
I646
tp1868
F12.15347136890167
s(I1041
I498
tp1869
F27.284654485984639
s(I1017
I3
tp1870
F27.809608636680295
s(I102
I41
tp1871
F91.453728023802526
s(I1109
I41
tp1872
F77.258191588714894
s(I569
I1041
tp1873
F63.637751561740316
s(I1282
I41
tp1874
F28.151749501107194
s(I711
I1409
tp1875
F82.883386246482331
s(I401
I541
tp1876
F0.13492169553507294
s(I41
I393
tp1877
F42.395452673180735
s(I41
I860
tp1878
F9.2960034770186883
s(I794
I1041
tp1879
F44.180507822209513
s(I409
I160
tp1880
F15.761523943714838
s(I1041
I387
tp1881
F43.062472025521018
s(I276
I541
tp1882
F77.209239686152813
s(I617
I1041
tp1883
F6.03947291973288
s(I86
I541
tp1884
F53.841779962923944
s(I877
I1041
tp1885
F43.996005382185523
s(I909
I1065
tp1886
F59.889195819181666
s(I514
I1126
tp1887
F21.248636124390742
s(I697
I1041
tp1888
F78.249633759717824
s(I1400
I41
tp1889
F3.3890617521306843
s(I22
I20
tp1890
F22.551238428841856
s(I426
I541
tp1891
F39.947791846129199
s(I152
I861
tp1892
F87.018856985238884
s(I339
I861
tp1893
F69.757313332014064
s(I456
I468
tp1894
F88.433133386283217
s(I131
I41
tp1895
F9.7129052731041341
s(I541
I1296
tp1896
F27.993117625402153
s(I1452
I41
tp1897
F6.6417582857905888
s(I10
I503
tp1898
F99.102476212276628
s(I409
I565
tp1899
F73.350216783998704
s(I1404
I41
tp1900
F67.990291535158264
s(I1209
I41
tp1901
F9.4688570318092076
s(I1361
I339
tp1902
F96.774556958407928
s(I41
I353
tp1903
F12.822264696259522
s(I41
I820
tp1904
F69.127205233307336
s(I1456
I41
tp1905
F88.010021751727521
s(I901
I1041
tp1906
F76.739351640080471
s(I337
I811
tp1907
F48.0201927984902
s(I176
I541
tp1908
F58.252792658655515
s(I541
I1429
tp1909
F39.860947909743558
s(I41
I274
tp1910
F73.705152670793794
s(I271
I541
tp1911
F26.651839953924739
s(I937
I1041
tp1912
F82.301514804902027
s(I570
I1041
tp1913
F15.075997885397129
s(I41
I498
tp1914
F71.983070111348241
s(I41
I837
tp1915
F15.212871546438301
s(I1431
I41
tp1916
F85.815501991160204
s(I1041
I388
tp1917
F96.944143140029254
s(I541
I1243
tp1918
F1.2692396081547597
s(I337
I488
tp1919
F56.075373574278828
s(I622
I1041
tp1920
F14.621389121335394
s(I51
I41
tp1921
F14.506288120148147
s(I837
I1482
tp1922
F90.793669422813068
s(I290
I41
tp1923
F42.465205800193132
s(I525
I1020
tp1924
F75.696489599073828
s(I241
I541
tp1925
F26.629466197222541
s(I1342
I41
tp1926
F11.659067955507862
s(I331
I361
tp1927
F42.737889827651202
s(I41
I982
tp1928
F11.910486744015492
s(I541
I1356
tp1929
F31.871144013967811
s(I635
I1041
tp1930
F64.685058679665559
s(I1313
I41
tp1931
F96.405200796347799
s(I1376
I41
tp1932
F50.261466274143309
s(I1259
I41
tp1933
F5.3292422118567
s(I816
I1041
tp1934
F8.115370635241181
s(I1163
I41
tp1935
F6.8770568814231048
s(I1407
I41
tp1936
F52.98664953867133
s(I412
I541
tp1937
F58.590740430838082
s(I336
I541
tp1938
F38.678853351044836
s(I363
I41
tp1939
F70.198658294693544
s(I168
I41
tp1940
F71.266686587441171
s(I541
I1390
tp1941
F85.038616533975414
s(I152
I909
tp1942
F69.73441116518373
s(I690
I1041
tp1943
F77.967367013871112
s(I1041
I492
tp1944
F57.71208908248331
s(I1262
I41
tp1945
F70.035593003793068
s(I1337
I214
tp1946
F20.868905907776771
s(I494
I41
tp1947
F74.161656329556394
s(I41
I846
tp1948
F39.210810379332131
s(I938
I1041
tp1949
F19.697331968131049
s(I919
I1041
tp1950
F34.958841834330876
s(I541
I1236
tp1951
F53.307160108936536
s(I233
I41
tp1952
F75.751314216354942
s(I409
I658
tp1953
F52.052612958895359
s(I669
I1041
tp1954
F96.172858232340701
s(I111
I541
tp1955
F38.517439424723534
s(I1089
I361
tp1956
F92.119651866520627
s(I41
I991
tp1957
F9.0613766671968303
s(I541
I1349
tp1958
F22.270572649026043
s(I562
I1409
tp1959
F57.11172684114473
s(I88
I41
tp1960
F29.221098673664304
s(I1318
I41
tp1961
F75.692547205378617
s(I868
I1041
tp1962
F53.349802035231043
s(I5
I626
tp1963
F59.597708281826698
s(I373
I541
tp1964
F44.673385606740212
s(I1041
I340
tp1965
F70.236158810310997
s(I799
I1041
tp1966
F47.337930446687935
s(I837
I1178
tp1967
F88.825236149580718
s(I1041
I237
tp1968
F72.67058145462002
s(I41
I806
tp1969
F77.172052897630934
s(I742
I1041
tp1970
F33.321447989613482
s(I1073
I41
tp1971
F86.748977413268122
s(I1041
I485
tp1972
F35.532553481761653
s(I191
I541
tp1973
F73.525627877788295
s(I1188
I41
tp1974
F74.372796429922275
s(I845
I1041
tp1975
F53.181555027368724
s(I144
I41
tp1976
F41.742099380303074
s(I1011
I468
tp1977
F66.691273809787404
s(I541
I1260
tp1978
F40.353659980890242
s(I41
I951
tp1979
F11.924350783525473
s(I1238
I41
tp1980
F12.495168347419128
s(I409
I187
tp1981
F1.7036602900144082
s(I839
I1361
tp1982
F77.431672151212425
s(I453
I541
tp1983
F6.7178976203222103
s(I1435
I41
tp1984
F97.391907173434888
s(I1253
I41
tp1985
F1.4195994827648661
s(I41
I960
tp1986
F23.848420027571528
s(I479
I541
tp1987
F5.0950624128756843
s(I956
I1041
tp1988
F55.064838992235444
s(I337
I425
tp1989
F61.269759049317727
s(I284
I541
tp1990
F47.458650584663665
s(I379
I409
tp1991
F66.200988287571874
s(I514
I1003
tp1992
F54.389945739364897
s(I14
I909
tp1993
F7.0877741898597746
s(I1041
I346
tp1994
F16.282570435272092
s(I992
I1041
tp1995
F48.762496766899218
s(I437
I41
tp1996
F44.518002216949085
s(I1108
I41
tp1997
F2.8938947477925692
s(I21
I520
tp1998
F82.963438556664613
s(I64
I41
tp1999
F39.306447257843566
s(I184
I541
tp2000
F30.294699068987839
s(I541
I1487
tp2001
F31.991191701729694
s(I1041
I336
tp2002
F93.183991341689577
s(I784
I1041
tp2003
F62.633791526296164
s(I213
I541
tp2004
F10.128239792306726
s(I41
I340
tp2005
F89.921625897028235
s(I95
I41
tp2006
F27.824041508819739
s(I41
I738
tp2007
F4.5350775802685872
s(I759
I1041
tp2008
F35.697199149516202
s(I836
I1041
tp2009
F6.2734814470797655
s(I541
I1077
tp2010
F75.394771634560627
s(I687
I1409
tp2011
F23.681350865926976
s(I41
I485
tp2012
F31.496641361771939
s(I41
I952
tp2013
F90.761866220394737
s(I1164
I41
tp2014
F7.5511644551741419
s(I849
I1041
tp2015
F73.403721702442809
s(I337
I228
tp2016
F88.513719513182963
s(I1041
I111
tp2017
F66.43694974524297
s(I541
I1190
tp2018
F65.712075860713909
s(I1041
I299
tp2019
F76.161833370550411
s(I468
I409
tp2020
F97.644492360408819
s(I41
I260
tp2021
F28.626596481452527
s(I451
I541
tp2022
F34.242114431671169
s(I1497
I41
tp2023
F89.298433289239938
s(I41
I969
tp2024
F83.164272316830406
s(I337
I418
tp2025
F30.55328877551403
s(I1041
I248
tp2026
F68.154253184846667
s(I541
I1367
tp2027
F15.879063190743537
s(I1229
I41
tp2028
F55.257562139367437
s(I1421
I41
tp2029
F56.2268381884749
s(I1161
I345
tp2030
F74.343668537902658
s(I41
I135
tp2031
F21.191601363400171
s(I1064
I41
tp2032
F46.625721076901314
s(I406
I409
tp2033
F10.310163216651247
s(I63
I541
tp2034
F12.681150282746911
s(I1041
I326
tp2035
F19.15642744386211
s(I541
I1480
tp2036
F66.110868758888813
s(I468
I789
tp2037
F35.020974066201362
s(I413
I41
tp2038
F77.576837008819311
s(I947
I1041
tp2039
F77.366382729854351
s(I1084
I41
tp2040
F84.649005163208031
s(I1449
I41
tp2041
F55.275926761292347
s(I474
I41
tp2042
F72.592951066872516
s(I41
I349
tp2043
F24.939052609695977
s(I41
I784
tp2044
F35.951300457224178
s(I41
I747
tp2045
F19.568879955381956
s(I1041
I471
tp2046
F19.029533326964344
s(I1499
I41
tp2047
F51.149149033650275
s(I325
I541
tp2048
F31.310933122260188
s(I802
I1041
tp2049
F45.604919777258004
s(I71
I41
tp2050
F71.173720093860354
s(I1304
I41
tp2051
F16.799964487033105
s(I130
I541
tp2052
F66.878585011586338
s(I275
I41
tp2053
F44.881881947804622
s(I41
I494
tp2054
F14.304041934246204
s(I41
I929
tp2055
F65.093490109912153
s(I65
I909
tp2056
F73.11951625263174
s(I854
I1041
tp2057
F94.930102069388823
s(I541
I1215
tp2058
F84.193180515691267
s(I1331
I361
tp2059
F42.309529819363135
s(I332
I541
tp2060
F18.352958135888109
s(I159
I541
tp2061
F47.453245316212154
s(I1242
I41
tp2062
F49.153804388872743
s(I41
I127
tp2063
F4.6886517571309234
s(I204
I541
tp2064
F78.333161044999244
s(I646
I1041
tp2065
F68.672424256209169
s(I409
I451
tp2066
F6.061913455114432
s(I1369
I41
tp2067
F87.332992545791683
s(I541
I1360
tp2068
F91.488060009239874
s(I283
I541
tp2069
F58.853082216966065
s(I1441
I41
tp2070
F29.783285011132719
s(I1337
I361
tp2071
F22.411918271081344
s(I344
I541
tp2072
F97.186470033895944
s(I682
I1041
tp2073
F70.696886107275148
s(I361
I541
tp2074
F70.291324472897401
s(I41
I309
tp2075
F32.063867733708172
s(I1337
I311
tp2076
F97.397997713397402
s(I337
I578
tp2077
F33.452879463740182
s(I466
I541
tp2078
F16.052419295840426
s(I1219
I41
tp2079
F88.98637087680919
s(I1041
I452
tp2080
F40.076100061000041
s(I1266
I41
tp2081
F50.213093722456811
s(I711
I1041
tp2082
F25.930834688858674
s(I492
I541
tp2083
F9.0134551517969346
s(I175
I541
tp2084
F25.686947731650122
s(I541
I1051
tp2085
F50.397274149517337
s(I41
I326
tp2086
F67.10673530176156
s(I41
I793
tp2087
F18.516211816265361
s(I41
I748
tp2088
F97.061674348757492
s(I337
I325
tp2089
F19.850465211450661
s(I1041
I456
tp2090
F66.926837956430489
s(I1425
I41
tp2091
F74.862566190149934
s(I450
I41
tp2092
F84.181448401819608
s(I984
I1041
tp2093
F89.093776384215317
s(I1337
I304
tp2094
F93.29060229787703
s(I457
I41
tp2095
F68.011891804038925
s(I41
I471
tp2096
F67.432169557678705
s(I41
I938
tp2097
F13.252795920795879
s(I973
I1041
tp2098
F96.293979119080575
s(I337
I214
tp2099
F32.087789668246138
s(I1041
I89
tp2100
F76.905274004646273
s(I447
I409
tp2101
F58.048010514047753
s(I1280
I41
tp2102
F91.134440934691767
s(I1041
I415
tp2103
F84.7841942285729
s(I108
I41
tp2104
F62.061389439226076
s(I312
I41
tp2105
F20.03520421079379
s(I41
I96
tp2106
F98.893176069389511
s(I41
I571
tp2107
F16.132327790693836
s(I793
I1041
tp2108
F13.296279690778368
s(I1217
I41
tp2109
F80.175804274026007
s(I1041
I234
tp2110
F76.196131041715788
s(I541
I1321
tp2111
F41.824446887077947
s(I1041
I359
tp2112
F58.047278703986549
s(I242
I541
tp2113
F26.273459274955368
s(I1030
I20
tp2114
F42.528361909091714
s(I20
I28
tp2115
F22.821627670706391
s(I1345
I41
tp2116
F84.167301154257913
s(I541
I1295
tp2117
F92.55939578396621
s(I409
I373
tp2118
F48.225231628000387
s(I1041
I304
tp2119
F56.343766143575301
s(I541
I1135
tp2120
F37.406948082921232
s(I541
I1498
tp2121
F90.302223487520322
s(I377
I41
tp2122
F5.3241060180313271
s(I123
I541
tp2123
F98.244188361735524
s(I1332
I41
tp2124
F27.779422851816459
s(I700
I1041
tp2125
F97.506517242108643
s(I41
I335
tp2126
F46.993178544856725
s(I3
I512
tp2127
F23.893372456924787
s(I41
I725
tp2128
F56.117753355044798
s(I28
I520
tp2129
F7.874050035794788
s(I50
I541
tp2130
F5.2007644725958757
s(I95
I541
tp2131
F68.206496620978058
s(I748
I1041
tp2132
F59.002254149378551
s(I520
I1037
tp2133
F25.058763840960808
s(I1231
I41
tp2134
F29.684151494095889
s(I76
I541
tp2135
F46.83474753067776
s(I129
I541
tp2136
F88.234033791933768
s(I41
I472
tp2137
F43.590293950384506
s(I41
I915
tp2138
F60.955907445236022
s(I206
I541
tp2139
F54.532465723744906
s(I155
I541
tp2140
F93.898912415769146
s(I541
I1201
tp2141
F22.035394555452704
s(I1478
I41
tp2142
F12.446524305122342
s(I216
I541
tp2143
F61.684545910323116
s(I433
I41
tp2144
F96.950804372730289
s(I1409
I332
tp2145
F62.900381322572798
s(I41
I572
tp2146
F8.641360859872016
s(I338
I541
tp2147
F47.531375990214372
s(I1041
I227
tp2148
F43.575719871559194
s(I288
I41
tp2149
F33.777796301629728
s(I417
I541
tp2150
F54.258513385621079
s(I20
I27
tp2151
F68.562712376845553
s(I41
I295
tp2152
F95.699159745014697
s(I41
I250
tp2153
F38.674321452684765
s(I41
I589
tp2154
F77.426147419684071
s(I846
I1041
tp2155
F80.818495355124895
s(I979
I1041
tp2156
F85.252943269800369
s(I409
I382
tp2157
F58.455596911273197
s(I1041
I297
tp2158
F35.737195215500904
s(I541
I1128
tp2159
F67.494293055131365
s(I319
I41
tp2160
F97.770198886108773
s(I1152
I409
tp2161
F63.395712090659885
s(I861
I1322
tp2162
F74.967489461241897
s(I214
I337
tp2163
F94.348838503140698
s(I1409
I187
tp2164
F1.9110915760857994
s(I1211
I41
tp2165
F39.43868463027507
s(I482
I541
tp2166
F24.011325189840193
s(I491
I541
tp2167
F51.41862554804306
s(I293
I409
tp2168
F22.027109890467823
s(I41
I432
tp2169
F15.533130722512
s(I541
I1383
tp2170
F97.690626338760666
s(I41
I734
tp2171
F87.405901347890691
s(I353
I41
tp2172
F51.026798790401237
s(I871
I1041
tp2173
F55.034973657977382
s(I1041
I442
tp2174
F8.4163319276568735
s(I174
I41
tp2175
F46.254087463232082
s(I1020
I25
tp2176
F26.16431299420805
s(I655
I1041
tp2177
F56.400958070233777
s(I856
I1041
tp2178
F24.342054828491566
s(I1157
I41
tp2179
F35.131205429285828
s(I409
I152
tp2180
F50.781271002720771
s(I691
I1041
tp2181
F74.013770461684686
s(I897
I1409
tp2182
F83.518953792927491
s(I217
I845
tp2183
F32.525380860758254
s(I456
I968
tp2184
F58.320843680418555
s(I1268
I41
tp2185
F51.184845595255211
s(I239
I41
tp2186
F90.85777438685983
s(I1187
I409
tp2187
F62.878532717271064
s(I663
I1409
tp2188
F65.934102642072517
s(I739
I1041
tp2189
F5.1545581760651498
s(I192
I541
tp2190
F95.529935023951325
s(I409
I9
tp2191
F40.137530995442241
s(I546
I1041
tp2192
F3.6960329225521837
s(I486
I41
tp2193
F78.060693414778797
s(I20
I34
tp2194
F5.8140079158300768
s(I41
I296
tp2195
F98.356571290831113
s(I41
I227
tp2196
F81.535836567530751
s(I594
I1041
tp2197
F96.119282711024425
s(I337
I287
tp2198
F33.615219344329773
s(I409
I954
tp2199
F26.632653980566179
s(I393
I541
tp2200
F78.873832835628946
s(I541
I1452
tp2201
F49.457490315347144
s(I1008
I468
tp2202
F18.73499981786555
s(I470
I541
tp2203
F8.9957203717907053
s(I1324
I41
tp2204
F73.571470856619811
s(I41
I441
tp2205
F56.631127111633873
s(I41
I780
tp2206
F85.174653983841594
s(I295
I41
tp2207
F26.229378370248778
s(I1041
I435
tp2208
F75.855589281513417
s(I356
I41
tp2209
F94.664124318130533
s(I1041
I430
tp2210
F40.803937292753687
s(I272
I541
tp2211
F77.391261010926428
s(I366
I845
tp2212
F90.788938681105606
s(I75
I541
tp2213
F82.477857991519087
s(I41
I458
tp2214
F92.886645751896083
s(I41
I925
tp2215
F1.894747766960847
s(I150
I41
tp2216
F58.823689410627644
s(I763
I1041
tp2217
F80.068743254942774
s(I972
I1041
tp2218
F10.894222379945596
s(I692
I1041
tp2219
F80.528673313956944
s(I909
I1220
tp2220
F24.172561726086339
s(I1194
I41
tp2221
F86.913711198055708
s(I20
I525
tp2222
F9.4477658725185325
s(I165
I41
tp2223
F23.687921215662943
s(I728
I1041
tp2224
F62.827917467394577
s(I337
I541
tp2225
F73.10507810235633
s(I888
I1041
tp2226
F23.936504787248957
s(I215
I41
tp2227
F42.918790455539991
s(I126
I11
tp2228
F49.621331209000729
s(I717
I1041
tp2229
F65.375680502354541
s(I1251
I41
tp2230
F44.347239954283943
s(I41
I228
tp2231
F51.020441186364586
s(I1453
I41
tp2232
F50.386079832854392
s(I757
I1041
tp2233
F57.64944020360214
s(I1041
I283
tp2234
F96.236457876415699
s(I541
I1146
tp2235
F52.771641773288778
s(I541
I1445
tp2236
F88.231281555883257
s(I909
I1014
tp2237
F82.676896673946416
s(I968
I1289
tp2238
F22.025769775884541
s(I435
I41
tp2239
F10.898595803578869
s(I18
I3
tp2240
F61.817334363227928
s(I262
I541
tp2241
F5.8784841679489386
s(I3
I511
tp2242
F77.355488706622282
s(I41
I418
tp2243
F94.419573233869087
s(I41
I885
tp2244
F26.918399947189563
s(I1114
I41
tp2245
F31.992594054854628
s(I541
I1259
tp2246
F29.770046265246453
s(I85
I41
tp2247
F52.724814865221191
s(I585
I1041
tp2248
F72.399850441712871
s(I54
I541
tp2249
F76.587951514087123
s(I845
I1342
tp2250
F52.770210854803032
s(I41
I51
tp2251
F36.246444019865251
s(I332
I41
tp2252
F72.716237902086462
s(I409
I106
tp2253
F72.61804797831185
s(I1041
I69
tp2254
F83.34405947039302
s(I1355
I41
tp2255
F6.1711626810338149
s(I96
I541
tp2256
F51.064512761628713
s(I1409
I343
tp2257
F82.839514907290663
s(I1008
I3
tp2258
F31.56196873540479
s(I20
I532
tp2259
F53.997064757403656
s(I112
I541
tp2260
F18.241338883533874
s(I77
I541
tp2261
F44.661527687725389
s(I1041
I214
tp2262
F87.528560033519838
s(I541
I1293
tp2263
F26.104591164134128
s(I1170
I41
tp2264
F28.441377925563227
s(I141
I41
tp2265
F91.771785168916907
s(I1337
I488
tp2266
F92.000308063694163
s(I947
I1409
tp2267
F31.848728460975885
s(I202
I41
tp2268
F30.005876059620682
s(I41
I282
tp2269
F72.043184513146485
s(I41
I237
tp2270
F45.116859730302238
s(I903
I1041
tp2271
F31.814369268111165
s(I337
I988
tp2272
F18.823074052071242
s(I541
I1139
tp2273
F15.112592282481829
s(I11
I968
tp2274
F83.640921297239814
s(I106
I909
tp2275
F20.770743279478086
s(I1227
I41
tp2276
F36.94335110992548
s(I252
I41
tp2277
F96.367321277710104
s(I469
I541
tp2278
F2.3043150345798069
s(I754
I1041
tp2279
F51.115428226718095
s(I845
I1446
tp2280
F52.6891108025591
s(I41
I427
tp2281
F95.169411251047052
s(I41
I894
tp2282
F29.848973802827693
s(I1455
I41
tp2283
F1.11642350822172
s(I409
I821
tp2284
F99.955974620284977
s(I411
I41
tp2285
F77.301280838795421
s(I1020
I38
tp2286
F57.593409034028973
s(I33
I20
tp2287
F12.541871299506624
s(I472
I41
tp2288
F70.886299375917801
s(I511
I1126
tp2289
F30.021645137241336
s(I422
I541
tp2290
F16.929852725282714
s(I41
I911
tp2291
F59.922670295780101
s(I61
I41
tp2292
F39.607612710631848
s(I9
I3
tp2293
F64.886417312375329
s(I541
I1173
tp2294
F10.593311774273207
s(I122
I41
tp2295
F36.95426987918561
s(I521
I1020
tp2296
F16.343879330369038
s(I603
I1041
tp2297
F70.980999103976288
s(I1338
I41
tp2298
F13.910820395241474
s(I20
I531
tp2299
F86.772249219980921
s(I365
I41
tp2300
F45.742995936488164
s(I41
I69
tp2301
F59.503334223716365
s(I427
I541
tp2302
F72.41150092835187
s(I281
I41
tp2303
F9.8817751142415311
s(I541
I1286
tp2304
F50.80968318170256
s(I968
I1475
tp2305
F55.669387915256067
s(I1041
I245
tp2306
F75.561986837051776
s(I1041
I414
tp2307
F95.225636492741657
s(I41
I259
tp2308
F2.0900338032435961
s(I41
I214
tp2309
F33.220549876324235
s(I337
I258
tp2310
F69.335505791027202
s(I1041
I277
tp2311
F78.192184055726273
s(I541
I1463
tp2312
F79.417271513191281
s(I178
I41
tp2313
F91.348783740226523
s(I1041
I445
tp2314
F46.124899065557109
s(I488
I541
tp2315
F80.089023446497848
s(I41
I428
tp2316
F86.334066357554903
s(I1041
I422
tp2317
F75.811837909785282
s(I541
I1277
tp2318
F25.707772861324862
s(I906
I1041
tp2319
F30.525463327552583
s(I1264
I41
tp2320
F30.098647791095178
s(I414
I41
tp2321
F75.905956934889005
s(I53
I541
tp2322
F10.248344513907403
s(I277
I541
tp2323
F62.578595715416562
s(I1005
I126
tp2324
F64.591367633615064
s(I958
I1041
tp2325
F50.043325462990083
s(I79
I541
tp2326
F43.789252620385099
s(I1492
I41
tp2327
F13.020303791987043
s(I793
I1409
tp2328
F52.785008594913485
s(I409
I687
tp2329
F10.65428161689923
s(I448
I41
tp2330
F65.406787075554504
s(I1041
I472
tp2331
F34.159031152112419
s(I361
I339
tp2332
F23.678788284278752
s(I1151
I41
tp2333
F87.236208952949184
s(I735
I1345
tp2334
F99.401480575378741
s(I20
I538
tp2335
F87.35452890020774
s(I971
I1041
tp2336
F94.156000288535068
s(I41
I78
tp2337
F72.436115352596403
s(I714
I1041
tp2338
F91.763173711605958
s(I98
I41
tp2339
F20.942010051950867
s(I479
I41
tp2340
F92.816874520734544
s(I1011
I409
tp2341
F97.561119243194838
s(I1041
I381
tp2342
F77.841942544644908
s(I1150
I41
tp2343
F84.66902997105457
s(I541
I1311
tp2344
F43.03594326553597
s(I341
I541
tp2345
F48.377079613623089
s(I345
I999
tp2346
F56.623528498867323
s(I1409
I466
tp2347
F48.519084656544933
s(I1301
I41
tp2348
F77.114522500875211
s(I887
I1041
tp2349
F22.314186101462685
s(I257
I41
tp2350
F29.733868156656762
s(I3
I6
tp2351
F65.553802784456991
s(I41
I223
tp2352
F33.321418817832146
s(I520
I1030
tp2353
F79.966736390295623
s(I334
I41
tp2354
F71.212416684638555
s(I541
I1456
tp2355
F24.936536558150912
s(I1409
I152
tp2356
F13.552228181379522
s(I126
I506
tp2357
F23.005501575489262
s(I220
I541
tp2358
F39.946498300715618
s(I41
I405
tp2359
F87.191222767437765
s(I41
I872
tp2360
F72.673842536094142
s(I41
I927
tp2361
F0.63838084421357078
s(I337
I863
tp2362
F10.643480466179966
s(I1041
I301
tp2363
F57.322990346115887
s(I468
I956
tp2364
F24.966088646574924
s(I158
I541
tp2365
F88.990879967471784
s(I143
I41
tp2366
F14.091605102930538
s(I1006
I3
tp2367
F59.349684800334614
s(I421
I541
tp2368
F84.46999759882361
s(I1418
I41
tp2369
F16.610436019018305
s(I390
I41
tp2370
F4.382456040951932
s(I447
I541
tp2371
F35.276672691872847
s(I924
I1041
tp2372
F40.68010898701494
s(I1261
I41
tp2373
F5.7790596931906464
s(I1468
I41
tp2374
F54.559433410347637
s(I960
I1041
tp2375
F58.493363772535631
s(I409
I443
tp2376
F9.1478927044704399
s(I1277
I41
tp2377
F46.575309307879976
s(I541
I1304
tp2378
F1.8152735452976354
s(I1373
I41
tp2379
F54.995842151133068
s(I1041
I278
tp2380
F4.3941726321275461
s(I455
I41
tp2381
F52.279285152367713
s(I1126
I41
tp2382
F93.251359278901717
s(I41
I667
tp2383
F79.375149138168126
s(I260
I41
tp2384
F51.726297717762456
s(I605
I1041
tp2385
F66.054699458015719
s(I541
I1417
tp2386
F76.094620150591695
s(I978
I1041
tp2387
F83.189993539494537
s(I743
I1041
tp2388
F25.180691812779298
s(I804
I1041
tp2389
F65.641092113757765
s(I905
I1041
tp2390
F87.987589127315374
s(I126
I509
tp2391
F7.3120429566661871
s(I607
I1041
tp2392
F71.797910815948669
s(I310
I41
tp2393
F39.650041025240213
s(I41
I414
tp2394
F33.732919530406456
s(I41
I849
tp2395
F4.1016689073609891
s(I1041
I400
tp2396
F27.664873417879321
s(I541
I1231
tp2397
F14.468872525700416
s(I1003
I13
tp2398
F69.631016824316916
s(I325
I41
tp2399
F43.614355373542722
s(I1275
I41
tp2400
F8.9958368200781393
s(I41
I47
tp2401
F71.170025533446406
s(I41
I994
tp2402
F61.434001061068756
s(I956
I1468
tp2403
F14.236259559302578
s(I541
I1376
tp2404
F25.505968823564885
s(I375
I41
tp2405
F0.382265273040161
s(I323
I541
tp2406
F29.777225656811048
s(I1155
I41
tp2407
F24.177418839401888
s(I180
I41
tp2408
F64.621408140926846
s(I41
I184
tp2409
F38.088217898285372
s(I41
I627
tp2410
F9.0315212720098685
s(I1041
I367
tp2411
F33.60377300830676
s(I541
I1297
tp2412
F54.986814151730123
s(I66
I541
tp2413
F77.70891207147163
s(I957
I1041
tp2414
F15.520571644743786
s(I92
I541
tp2415
F22.326201732150153
s(I915
I1041
tp2416
F94.56164470745783
s(I1305
I41
tp2417
F73.523841318551987
s(I41
I201
tp2418
F72.136406232441487
s(I41
I668
tp2419
F71.163465945529225
s(I1459
I41
tp2420
F50.210694610651494
s(I245
I41
tp2421
F43.889187233016237
s(I337
I824
tp2422
F57.608205792136388
s(I28
I20
tp2423
F5.5251602971497675
s(I541
I1410
tp2424
F92.783926475081742
s(I345
I866
tp2425
F79.434861238016481
s(I1339
I361
tp2426
F12.829259226455214
s(I492
I41
tp2427
F12.714183280412694
s(I293
I541
tp2428
F8.0465683035730766
s(I770
I1041
tp2429
F11.318832276760737
s(I41
I391
tp2430
F47.5504874716814
s(I41
I858
tp2431
F9.3009433632598828
s(I573
I1041
tp2432
F60.21329513887035
s(I354
I541
tp2433
F2.5287015040170502
s(I1075
I41
tp2434
F95.223478027795892
s(I1041
I393
tp2435
F93.953157656818533
s(I1314
I41
tp2436
F70.752549102687652
s(I822
I1041
tp2437
F66.307306016613794
s(I609
I1041
tp2438
F50.857150532364074
s(I1126
I4
tp2439
F15.646431886169754
s(I24
I520
tp2440
F23.008733239768375
s(I172
I541
tp2441
F98.780688156595502
s(I301
I41
tp2442
F47.045711887016125
s(I870
I1041
tp2443
F45.325740680783696
s(I508
I1126
tp2444
F16.876230086770995
s(I362
I41
tp2445
F43.336283916250594
s(I509
I1468
tp2446
F10.13971721722271
s(I312
I541
tp2447
F24.198636598500165
s(I41
I628
tp2448
F16.360519006977135
s(I1041
I352
tp2449
F80.869830368125946
s(I335
I41
tp2450
F16.972947351434986
s(I156
I41
tp2451
F16.404636855654676
s(I542
I1409
tp2452
F1.4523460201085303
s(I1337
I363
tp2453
F19.718185870890025
s(I1065
I41
tp2454
F8.7759047489209365
s(I1192
I41
tp2455
F20.617694496459105
s(I434
I541
tp2456
F68.038126933898397
s(I163
I41
tp2457
F2.3807592554211277
s(I1018
I3
tp2458
F55.116846200160666
s(I41
I383
tp2459
F53.925387203773397
s(I409
I873
tp2460
F4.9189077407636788
s(I138
I361
tp2461
F51.888543028729373
s(I541
I1435
tp2462
F29.587994534111051
s(I1041
I322
tp2463
F37.079817123519234
s(I41
I275
tp2464
F27.205743980567998
s(I952
I1041
tp2465
F55.838267465957301
s(I221
I41
tp2466
F63.885662147977463
s(I41
I392
tp2467
F96.027132320042568
s(I41
I835
tp2468
F82.807522938208365
s(I1257
I41
tp2469
F87.688418246379229
s(I1041
I386
tp2470
F8.874516171364677
s(I941
I1041
tp2471
F69.116925726479977
s(I513
I1126
tp2472
F93.740283730996708
s(I503
I1007
tp2473
F32.56374146142813
s(I639
I1337
tp2474
F52.324714599887237
s(I330
I541
tp2475
F30.907036882100826
s(I1051
I41
tp2476
F64.042797059926968
s(I977
I1041
tp2477
F14.717115991712792
s(I1112
I41
tp2478
F16.744986732672896
s(I1014
I409
tp2479
F50.796693044238559
s(I83
I41
tp2480
F87.896315237648821
s(I541
I1394
tp2481
F90.355843444708967
s(I837
I1361
tp2482
F27.452850176514222
s(I215
I541
tp2483
F52.795943023484249
s(I686
I1041
tp2484
F92.248135347526642
s(I1041
I345
tp2485
F23.125719679325286
s(I338
I41
tp2486
F14.090798927802251
s(I789
I1041
tp2487
F21.121472894605585
s(I1337
I359
tp2488
F83.495797730186752
s(I288
I541
tp2489
F75.061429372547934
s(I91
I541
tp2490
F68.251061940830084
s(I41
I352
tp2491
F58.253204639296044
s(I41
I827
tp2492
F19.643244059635133
s(I668
I1041
tp2493
F86.000282425284468
s(I337
I359
tp2494
F6.4429646587839446
s(I409
I882
tp2495
F79.364362927516481
s(I541
I1428
tp2496
F84.415365139660508
s(I139
I41
tp2497
F22.544494029146467
s(I16
I503
tp2498
F18.231975023281301
s(I1145
I41
tp2499
F54.206442996033999
s(I200
I41
tp2500
F17.603228516317337
s(I541
I1111
tp2501
F33.53376506807426
s(I716
I1041
tp2502
F33.01909863853907
s(I41
I497
tp2503
F20.185637908481834
s(I4
I3
tp2504
F63.985258194004992
s(I44
I541
tp2505
F88.28808672176379
s(I353
I541
tp2506
F22.41486407370763
s(I930
I1041
tp2507
F38.70081175473058
s(I379
I541
tp2508
F31.701041968776821
s(I752
I1041
tp2509
F18.662637435908657
s(I909
I1057
tp2510
F30.599633126506433
s(I941
I1361
tp2511
F49.981395656030848
s(I1041
I357
tp2512
F0.69636275926159286
s(I1233
I41
tp2513
F1.0365622881819192
s(I38
I861
tp2514
F76.076534852285278
s(I1345
I409
tp2515
F72.323963038301983
s(I41
I981
tp2516
F50.252977001371157
s(I1054
I41
tp2517
F8.3216184001106637
s(I409
I652
tp2518
F87.160429345974848
s(I541
I1355
tp2519
F22.725449860372816
s(I541
I1395
tp2520
F25.321433404458116
s(I468
I508
tp2521
F33.34221942321625
s(I1345
I356
tp2522
F70.776332780379462
s(I1088
I41
tp2523
F56.681688030132179
s(I59
I41
tp2524
F13.210138737829535
s(I120
I41
tp2525
F63.950369811541904
s(I541
I1385
tp2526
F22.561506071525706
s(I814
I1041
tp2527
F44.497136346826913
s(I31
I520
tp2528
F19.127759959823464
s(I508
I1003
tp2529
F67.225340570053888
s(I1119
I41
tp2530
F99.573877051354344
s(I475
I345
tp2531
F11.234753711432944
s(I41
I361
tp2532
F52.04376464205864
s(I41
I828
tp2533
F74.649587717194137
s(I41
I759
tp2534
F81.98901042100448
s(I8
I126
tp2535
F29.985359055836682
s(I839
I1041
tp2536
F59.122884460889225
s(I908
I1041
tp2537
F33.122168308755604
s(I516
I1409
tp2538
F53.854822919002189
s(I879
I1041
tp2539
F15.810427042113695
s(I39
I20
tp2540
F94.018994113494301
s(I41
I845
tp2541
F19.766955822003297
s(I1409
I53
tp2542
F42.455892500241433
s(I176
I41
tp2543
F26.446220845052657
s(I659
I1041
tp2544
F62.680843344738335
s(I37
I409
tp2545
F83.06259523680292
s(I404
I41
tp2546
F2.3138712711790466
s(I150
I541
tp2547
F66.403551699719159
s(I355
I541
tp2548
F75.522478791499978
s(I541
I1348
tp2549
F62.225402307833789
s(I707
I1041
tp2550
F43.675171772143109
s(I160
I541
tp2551
F61.979969270481824
s(I241
I41
tp2552
F53.704881742526652
s(I41
I148
tp2553
F39.136402013809061
s(I1437
I41
tp2554
F71.227827217382469
s(I62
I41
tp2555
F9.5437958939197483
s(I1041
I331
tp2556
F32.562725171331429
s(I337
I606
tp2557
F69.811413281515684
s(I562
I1041
tp2558
F66.295068075029164
s(I469
I41
tp2559
F13.225559717742607
s(I207
I541
tp2560
F97.812605555242556
s(I1450
I41
tp2561
F78.693459261655732
s(I438
I541
tp2562
F98.212000487289274
s(I951
I1409
tp2563
F44.542780252596359
s(I96
I41
tp2564
F55.985712590356606
s(I41
I805
tp2565
F49.615893183672775
s(I41
I760
tp2566
F32.487511201711818
s(I11
I909
tp2567
F96.530495764330865
s(I534
I1020
tp2568
F38.908259406619152
s(I337
I804
tp2569
F9.3779350159793111
s(I541
I1083
tp2570
F22.94106304086494
s(I505
I1003
tp2571
F70.851360771733681
s(I127
I41
tp2572
F17.892384639890423
s(I41
I950
tp2573
F84.503609032454591
s(I43
I541
tp2574
F37.248946782852911
s(I541
I1196
tp2575
F50.090121514630049
s(I1409
I67
tp2576
F44.158783614243568
s(I876
I1041
tp2577
F33.601892493940021
s(I818
I1041
tp2578
F81.681522222707883
s(I503
I1018
tp2579
F15.00348431384937
s(I452
I41
tp2580
F81.180605442633166
s(I660
I1041
tp2581
F7.6278564032820402
s(I626
I1300
tp2582
F75.100162439312967
s(I41
I967
tp2583
F37.788351492663594
s(I1352
I41
tp2584
F0.377724843914784
s(I409
I43
tp2585
F93.132470653826601
s(I541
I1373
tp2586
F50.424166295725158
s(I696
I1041
tp2587
F73.517081168401518
s(I510
I1003
tp2588
F17.000127589818181
s(I41
I157
tp2589
F28.18932172313837
s(I541
I1486
tp2590
F42.894006325977138
s(I725
I1041
tp2591
F83.09927607911176
s(I1041
I271
tp2592
F30.658468554753028
s(I314
I541
tp2593
F2.9834381499270535
s(I909
I1466
tp2594
F27.063005385057416
s(I41
I347
tp2595
F24.092590835802341
s(I41
I737
tp2596
F81.546227633563234
s(I1474
I41
tp2597
F99.265759136324078
s(I445
I41
tp2598
F51.501910247194196
s(I1481
I41
tp2599
F13.627114044170451
s(I106
I409
tp2600
F85.319808439738878
s(I343
I468
tp2601
F77.094599430416025
s(I201
I541
tp2602
F6.0178463131764666
s(I532
I1020
tp2603
F99.02985177548814
s(I1468
I289
tp2604
F46.59457887246986
s(I553
I1041
tp2605
F29.633693266949734
s(I41
I959
tp2606
F69.371981994689264
s(I1334
I41
tp2607
F2.329061705969615
s(I1132
I41
tp2608
F48.212713439038104
s(I103
I41
tp2609
F10.508252502640492
s(I1336
I41
tp2610
F76.551323076002191
s(I503
I1011
tp2611
F65.399564080078207
s(I41
I774
tp2612
F8.4649759019751585
s(I41
I968
tp2613
F35.387772022000284
s(I80
I541
tp2614
F62.423697009758136
s(I409
I505
tp2615
F89.901178528139326
s(I1041
I255
tp2616
F23.707702243009741
s(I541
I1366
tp2617
F64.831778587074837
s(I968
I1459
tp2618
F31.792324940775487
s(I361
I299
tp2619
F44.211329568417298
s(I1409
I38
tp2620
F91.248423599840692
s(I909
I1152
tp2621
F28.903948170195072
s(I424
I541
tp2622
F63.935690194945529
s(I41
I307
tp2623
F38.478589939867902
s(I1278
I41
tp2624
F46.809474589992327
s(I1451
I409
tp2625
F53.226837357485564
s(I1041
I325
tp2626
F23.091606823358223
s(I541
I1479
tp2627
F77.446145873751831
s(I1409
I252
tp2628
F49.423092591977749
s(I358
I541
tp2629
F6.8052334370033218
s(I909
I1379
tp2630
F24.068383769554401
s(I368
I541
tp2631
F66.085677210216616
s(I437
I541
tp2632
F60.656567316421715
s(I41
I348
tp2633
F78.212199768047952
s(I41
I791
tp2634
F62.392836450412084
s(I463
I541
tp2635
F59.845388696180557
s(I1041
I470
tp2636
F87.561986072762892
s(I762
I1041
tp2637
F20.771773433102869
s(I41
I493
tp2638
F62.672726751592009
s(I41
I928
tp2639
F81.08753873431354
s(I243
I41
tp2640
F19.394706301850928
s(I26
I20
tp2641
F88.920603091374545
s(I482
I41
tp2642
F67.019760324387988
s(I1041
I103
tp2643
F39.266608162979963
s(I541
I1214
tp2644
F18.135158754079928
s(I175
I126
tp2645
F31.473784892489775
s(I1003
I11
tp2646
F95.326371581570513
s(I1041
I408
tp2647
F8.837322000486969
s(I313
I541
tp2648
F58.655214107214661
s(I720
I1409
tp2649
F50.266931446769114
s(I606
I1041
tp2650
F96.982671876459264
s(I541
I1271
tp2651
F27.175447488944194
s(I273
I541
tp2652
F73.361922660735388
s(I1312
I41
tp2653
F15.869916063807354
s(I409
I53
tp2654
F93.641189546951608
s(I541
I1327
tp2655
F2.5119137621345988
s(I41
I305
tp2656
F74.761226483255214
s(I1387
I41
tp2657
F61.586780071872191
s(I41
I308
tp2658
F20.650760270493308
s(I1343
I41
tp2659
F69.793575774206118
s(I41
I578
tp2660
F26.224303802879657
s(I299
I41
tp2661
F89.566113258569203
s(I409
I537
tp2662
F62.879493899111651
s(I541
I1472
tp2663
F20.564567326127047
s(I1161
I41
tp2664
F46.556228454909345
s(I360
I41
tp2665
F82.907486973503026
s(I1470
I41
tp2666
F24.260884880347277
s(I186
I41
tp2667
F39.966123103951979
s(I41
I325
tp2668
F72.572478968804504
s(I41
I792
tp2669
F38.36205116456842
s(I41
I723
tp2670
F1.7939431221673408
s(I462
I41
tp2671
F14.931653324462602
s(I337
I324
tp2672
F93.293828898476335
s(I337
I783
tp2673
F16.687342592949605
s(I1041
I438
tp2674
F16.871473800806889
s(I1041
I142
tp2675
F19.199824289337375
s(I503
I1014
tp2676
F55.541087133991006
s(I1041
I441
tp2677
F20.575743391647649
s(I41
I470
tp2678
F21.785458162378578
s(I41
I937
tp2679
F35.220955346965034
s(I976
I1345
tp2680
F27.893826817767554
s(I926
I1041
tp2681
F48.634622718719811
s(I47
I541
tp2682
F85.835794779754565
s(I652
I1361
tp2683
F93.070570601655746
s(I530
I1020
tp2684
F75.38638770018413
s(I1263
I41
tp2685
F85.451355222631463
s(I219
I41
tp2686
F25.691264203764053
s(I516
I1003
tp2687
F93.943733721107577
s(I41
I103
tp2688
F7.5651720566803249
s(I1041
I233
tp2689
F86.299667049629676
s(I230
I541
tp2690
F47.609068008757774
s(I87
I968
tp2691
F68.759054721949312
s(I309
I541
tp2692
F76.46918285108066
s(I20
I29
tp2693
F29.769541081515804
s(I41
I317
tp2694
F36.770276697303025
s(I1370
I41
tp2695
F43.399364597258561
s(I409
I943
tp2696
F95.168479117183125
s(I541
I1497
tp2697
F74.829367615706232
s(I432
I909
tp2698
F20.940264757697491
s(I89
I41
tp2699
F14.581600626987779
s(I1097
I41
tp2700
F10.639540749491051
s(I1319
I41
tp2701
F11.081429887658366
s(I845
I1409
tp2702
F54.377577829761961
s(I383
I541
tp2703
F88.335703983262263
s(I1380
I41
tp2704
F65.530345410975571
s(I541
I1384
tp2705
F80.650440029257794
s(I909
I1009
tp2706
F35.273796393463172
s(I336
I41
tp2707
F61.805637034710848
s(I1041
I448
tp2708
F81.078494654851738
s(I782
I1345
tp2709
F85.56873161451351
s(I1041
I497
tp2710
F51.949886126437626
s(I1337
I250
tp2711
F35.9873918368136
s(I1174
I41
tp2712
F84.587956077799234
s(I41
I479
tp2713
F25.5498235311867
s(I41
I914
tp2714
F22.387757685480402
s(I1041
I303
tp2715
F90.2335654231685
s(I389
I541
tp2716
F92.120591405753999
s(I541
I1200
tp2717
F38.056942107137679
s(I1189
I41
tp2718
F43.677334745013383
s(I450
I541
tp2719
F33.290423471277784
s(I415
I541
tp2720
F12.863006940261057
s(I145
I41
tp2721
F53.280316200254539
s(I695
I1041
tp2722
F70.501614559292776
s(I476
I541
tp2723
F2.7869156909754556
s(I222
I41
tp2724
F35.728745190494969
s(I41
I547
tp2725
F39.773675495152425
s(I1239
I41
tp2726
F1.0061943680652496
s(I928
I1041
tp2727
F27.572270254788034
s(I541
I1313
tp2728
F13.75420689108805
s(I731
I1041
tp2729
F59.271706625481222
s(I1041
I328
tp2730
F47.514754041863569
s(I1409
I9
tp2731
F75.406838881066236
s(I97
I541
tp2732
F71.287859954993934
s(I20
I36
tp2733
F80.70919403356892
s(I41
I294
tp2734
F82.436162262653582
s(I3
I507
tp2735
F42.246917837151102
s(I976
I1041
tp2736
F26.357308906911324
s(I1041
I296
tp2737
F38.064052008868146
s(I541
I1127
tp2738
F47.026241974430469
s(I1223
I41
tp2739
F33.290691996124991
s(I772
I1041
tp2740
F95.367277803645308
s(I41
I439
tp2741
F79.063707582222889
s(I41
I778
tp2742
F48.361562738082611
s(I41
I733
tp2743
F21.422678224747806
s(I65
I41
tp2744
F63.417846190680883
s(I1020
I26
tp2745
F82.079643735582053
s(I16
I909
tp2746
F0.75128673010410596
s(I511
I1409
tp2747
F77.001872069777761
s(I41
I448
tp2748
F68.330757186999776
s(I41
I923
tp2749
F34.075145656285621
s(I1039
I20
tp2750
F57.961853774992633
s(I1409
I14
tp2751
F16.848036725099547
s(I940
I1041
tp2752
F25.999716545937879
s(I929
I1041
tp2753
F96.125428429686735
s(I37
I20
tp2754
F16.014959387106266
s(I1171
I41
tp2755
F75.793246231909578
s(I1011
I3
tp2756
F75.940873288080581
s(I541
I1305
tp2757
F26.388215756989087
s(I1165
I41
tp2758
F49.863352347547682
s(I409
I8
tp2759
F5.504170763544014
s(I541
I1338
tp2760
F39.700178216020085
s(I229
I541
tp2761
F46.13604906273563
s(I1226
I41
tp2762
F62.101544432637525
s(I452
I541
tp2763
F21.723807392720396
s(I198
I41
tp2764
F6.3600242204174151
s(I255
I541
tp2765
F28.791337389369843
s(I20
I35
tp2766
F29.869803956606113
s(I41
I303
tp2767
F89.014646988672766
s(I41
I226
tp2768
F28.250121918640613
s(I41
I693
tp2769
F34.065836713364185
s(I1276
I41
tp2770
F14.809331035681694
s(I337
I993
tp2771
F40.488742458521429
s(I410
I41
tp2772
F31.225546151193228
s(I541
I1451
tp2773
F15.010420185736317
s(I1041
I330
tp2774
F24.395170895597406
s(I1345
I499
tp2775
F47.477139560474427
s(I1409
I468
tp2776
F9.7220272936061729
s(I1041
I157
tp2777
F51.828354255222031
s(I1274
I41
tp2778
F98.153530672081843
s(I41
I440
tp2779
F26.847795511789773
s(I41
I883
tp2780
F13.851719241769288
s(I41
I710
tp2781
F41.128565886230398
s(I261
I541
tp2782
F87.487605239941345
s(I994
I1041
tp2783
F26.64053786324655
s(I1041
I434
tp2784
F35.898956444336115
s(I467
I41
tp2785
F54.356403631908357
s(I68
I41
tp2786
F34.481339473375719
s(I1409
I300
tp2787
F97.984053694992127
s(I711
I1345
tp2788
F18.241601988010515
s(I1085
I41
tp2789
F63.55216785776873
s(I790
I1041
tp2790
F6.2653466970116973
s(I1207
I41
tp2791
F71.758231108279574
s(I41
I457
tp2792
F65.296537879695876
s(I520
I1023
tp2793
F86.268544257395831
s(I118
I41
tp2794
F63.076206110634615
s(I1041
I67
tp2795
F87.807713575846549
s(I468
I8
tp2796
F76.860667586379179
s(I140
I541
tp2797
F65.70129008227407
s(I1041
I475
tp2798
F44.69131450670973
s(I838
I1041
tp2799
F32.202888894175217
s(I20
I526
tp2800
F67.024755254376913
s(I475
I541
tp2801
F9.7300934350244344
s(I41
I90
tp2802
F1.4457402847411149
s(I409
I478
tp2803
F65.755592654114764
s(I409
I17
tp2804
F40.615524238931798
s(I874
I1041
tp2805
F57.748691971196884
s(I541
I1331
tp2806
F19.707546823179854
s(I704
I1041
tp2807
F76.560620064204542
s(I1409
I375
tp2808
F76.292195906088111
s(I873
I1041
tp2809
F83.359638897238014
s(I126
I8
tp2810
F73.975226999934435
s(I845
I1499
tp2811
F92.412272309265148
s(I41
I272
tp2812
F90.391810964278903
s(I1202
I41
tp2813
F57.189735489881535
s(I1041
I282
tp2814
F5.9254994949347601
s(I41
I836
tp2815
F95.965465426261503
s(I541
I1444
tp2816
F42.130154675316575
s(I11
I409
tp2817
F57.755847238073443
s(I909
I1013
tp2818
F60.973164222734653
s(I41
I417
tp2819
F16.207669245984345
s(I41
I884
tp2820
F59.823727556225506
s(I920
I1041
tp2821
F97.624424869675437
s(I1438
I41
tp2822
F37.028478113624587
s(I1041
I427
tp2823
F38.086937446213618
s(I541
I1258
tp2824
F16.70230795588996
s(I393
I41
tp2825
F86.532023651813489
s(I122
I361
tp2826
F39.590530517795294
s(I1252
I41
tp2827
F86.496439342519196
s(I909
I1041
tp2828
F19.683728875338769
s(I1468
I475
tp2829
F44.257924212771456
s(I1472
I41
tp2830
F74.711611681828842
s(I41
I901
tp2831
F39.595136328932121
s(I298
I541
tp2832
F28.908716746469544
s(I443
I41
tp2833
F85.341311726135388
s(I44
I41
tp2834
F97.860814902173274
s(I101
I541
tp2835
F59.826201361120511
s(I1041
I68
tp2836
F67.756250266273085
s(I541
I1179
tp2837
F79.146815417229917
s(I244
I541
tp2838
F12.684536348892927
s(I899
I1041
tp2839
F56.139184854530022
s(I837
I1418
tp2840
F6.0688221688877997
s(I985
I1041
tp2841
F65.643098410608275
s(I1122
I41
tp2842
F84.621304291378323
s(I20
I533
tp2843
F75.726987410195761
s(I1215
I41
tp2844
F47.991597028420642
s(I41
I67
tp2845
F25.038466663895264
s(I999
I1041
tp2846
F86.270700267565758
s(I541
I1292
tp2847
F83.633999394421494
s(I1025
I20
tp2848
F59.87858827407463
s(I773
I1041
tp2849
F16.55677058573697
s(I109
I41
tp2850
F38.294879720811537
s(I1358
I41
tp2851
F18.007697247728803
s(I476
I409
tp2852
F94.914286740171278
s(I313
I41
tp2853
F90.818067493342852
s(I41
I236
tp2854
F83.315993292390544
s(I41
I679
tp2855
F24.229910597764459
s(I1041
I275
tp2856
F24.679827793207444
s(I541
I1469
tp2857
F18.394948807237689
s(I647
I1041
tp2858
F71.763007247240225
s(I40
I20
tp2859
F71.764645959717484
s(I41
I426
tp2860
F71.15843327421436
s(I41
I893
tp2861
F9.5959281481736483
s(I684
I1041
tp2862
F35.995018906008212
s(I1041
I428
tp2863
F10.803608355125949
s(I541
I1251
tp2864
F65.347195167644472
s(I321
I541
tp2865
F61.565391898564314
s(I12
I503
tp2866
F97.335735671406425
s(I14
I503
tp2867
F86.540925650307059
s(I898
I1041
tp2868
F41.318993924054716
s(I511
I1468
tp2869
F66.497056172126634
s(I347
I541
tp2870
F97.924754932727964
s(I1414
I41
tp2871
F15.38167223247191
s(I41
I910
tp2872
F52.727838506274679
s(I446
I41
tp2873
F49.024856799590907
s(I468
I459
tp2874
F61.137845016039996
s(I1468
I409
tp2875
F92.39537752663179
s(I1034
I20
tp2876
F88.863412242538885
s(I41
I68
tp2877
F16.94673606859287
s(I703
I1337
tp2878
F22.640997575731781
s(I480
I41
tp2879
F85.260694958667187
s(I998
I1041
tp2880
F57.662760128700171
s(I1041
I379
tp2881
F15.18489541307132
s(I1041
I287
tp2882
F73.630821606620046
s(I1409
I16
tp2883
F5.8370849494529757
s(I1479
I41
tp2884
F7.6238023594387698
s(I217
I541
tp2885
F1.7159052596580904
s(I782
I1041
tp2886
F89.55487439158496
s(I1483
I41
tp2887
F9.1422621318637098
s(I1284
I41
tp2888
F19.576860289902353
s(I41
I258
tp2889
F1.2192164745371437
s(I520
I1024
tp2890
F33.70533274995622
s(I23
I520
tp2891
F2.163765154236319
s(I409
I345
tp2892
F61.681583066550203
s(I541
I1462
tp2893
F41.415084870700646
s(I33
I520
tp2894
F63.830055515988604
s(I345
I782
tp2895
F44.714233658709546
s(I289
I41
tp2896
F78.583016664471089
s(I807
I1041
tp2897
F77.053177879436561
s(I366
I41
tp2898
F82.234993459362187
s(I41
I403
tp2899
F75.551506346709346
s(I41
I870
tp2900
F75.064250421590913
s(I847
I1041
tp2901
F26.277716314327659
s(I1041
I421
tp2902
F88.146339547290182
s(I1041
I316
tp2903
F35.412084338347192
s(I1337
I287
tp2904
F45.300202270712774
s(I883
I1041
tp2905
F67.229370686167528
s(I831
I1361
tp2906
F68.738899373352751
s(I297
I541
tp2907
F36.322835751810942
s(I337
I758
tp2908
F19.003163853943249
s(I374
I541
tp2909
F54.882265162172295
s(I175
I41
tp2910
F89.053439650223126
s(I1496
I41
tp2911
F53.71637486128202
s(I675
I1041
tp2912
F70.116753922149172
s(I128
I541
tp2913
F32.688134410721162
s(I1356
I41
tp2914
F20.271549274504586
s(I41
I77
tp2915
F68.472319071517958
s(I422
I41
tp2916
F41.88052441294429
s(I723
I1041
tp2917
F33.545296692918782
s(I1041
I380
tp2918
F21.666466493835003
s(I1041
I199
tp2919
F10.776815786252014
s(I1436
I41
tp2920
F22.656555702923598
s(I1409
I110
tp2921
F6.7651164016777958
s(I1269
I41
tp2922
F98.93719220473875
s(I41
I267
tp2923
F97.714575627463532
s(I41
I657
tp2924
F23.34100878508637
s(I406
I541
tp2925
F19.360882580527516
s(I597
I1041
tp2926
F41.083428963830279
s(I541
I1423
tp2927
F24.774866871499245
s(I487
I41
tp2928
F5.028661345124541
s(I717
I1345
tp2929
F32.671230222543834
s(I292
I41
tp2930
F90.547374532274077
s(I41
I879
tp2931
F33.633062154528716
s(I409
I211
tp2932
F28.862504026510273
s(I464
I541
tp2933
F14.551298396505508
s(I1168
I41
tp2934
F72.75597692164304
s(I342
I41
tp2935
F8.4275795150441581
s(I365
I541
tp2936
F49.051937750856609
s(I220
I909
tp2937
F53.895638488571286
s(I1325
I41
tp2938
F63.915788121159324
s(I884
I1041
tp2939
F95.037302557120213
s(I1386
I41
tp2940
F22.85015117817958
s(I1041
I47
tp2941
F43.892880629971742
s(I541
I1382
tp2942
F99.033482860866343
s(I357
I41
tp2943
F12.656057307538138
s(I161
I345
tp2944
F38.036124991074281
s(I664
I1041
tp2945
F87.627163208613652
s(I1180
I41
tp2946
F89.539191760800534
s(I151
I41
tp2947
F44.595622285210823
s(I337
I482
tp2948
F44.20224267395232
s(I653
I1041
tp2949
F89.363012776340582
s(I1041
I184
tp2950
F5.1495280433814798
s(I541
I1303
tp2951
F31.791066980274874
s(I212
I41
tp2952
F94.146742211814598
s(I712
I1041
tp2953
F62.707161443503857
s(I693
I1041
tp2954
F16.673329726199626
s(I626
I1013
tp2955
F39.79172888915776
s(I8
I468
tp2956
F44.30878850099311
s(I41
I268
tp2957
F80.142536142659111
s(I41
I199
tp2958
F9.6121327945374535
s(I520
I1038
tp2959
F9.8950997258563156
s(I1041
I262
tp2960
F96.436444362558873
s(I1245
I41
tp2961
F63.313267823352348
s(I515
I1003
tp2962
F30.651824309059648
s(I1050
I41
tp2963
F17.302857958598594
s(I41
I413
tp2964
F18.366434653971485
s(I41
I848
tp2965
F43.266042861546907
s(I541
I1335
tp2966
F35.95528050444419
s(I246
I541
tp2967
F91.698180289561535
s(I465
I541
tp2968
F45.878186004154372
s(I268
I41
tp2969
F48.892000026648873
s(I22
I520
tp2970
F69.289436721186888
s(I1107
I41
tp2971
F84.616954639220126
s(I41
I46
tp2972
F15.241978633338583
s(I41
I993
tp2973
F33.737174120104207
s(I541
I1407
tp2974
F93.236190585247272
s(I48
I541
tp2975
F28.376440180671704
s(I1094
I41
tp2976
F38.094802794671025
s(I87
I468
tp2977
F29.292432251602484
s(I1248
I41
tp2978
F96.587155800634733
s(I143
I541
tp2979
F99.275103724839582
s(I286
I541
tp2980
F75.074519200564708
s(I1362
I41
tp2981
F39.397882770717672
s(I41
I191
tp2982
F87.873074232173437
s(I333
I41
tp2983
F63.929101665056621
s(I835
I1041
tp2984
F19.211934919523433
s(I1041
I366
tp2985
F20.606535313389607
s(I409
I553
tp2986
F50.870057725864207
s(I138
I41
tp2987
F16.477800211081451
s(I1384
I41
tp2988
F19.227449250696125
s(I342
I345
tp2989
F6.2981726433424035
s(I626
I1004
tp2990
F52.979713400718474
s(I326
I541
tp2991
F91.876910100069836
s(I41
I373
tp2992
F3.9081698323815139
s(I41
I200
tp2993
F78.822569313508211
s(I115
I337
tp2994
F86.042406197222903
s(I188
I41
tp2995
F39.471398282877267
s(I405
I541
tp2996
F85.707428351546582
s(I409
I300
tp2997
F25.671740549116784
s(I1224
I41
tp2998
F73.302107555645506
s(I541
I1409
tp2999
F77.074214594337647
s(I431
I541
tp3000
F21.143949016155648
s(I730
I1041
tp3001
F65.009753048129667
s(I820
I1041
tp3002
F26.803118767798374
s(I1487
I41
tp3003
F94.35985321911356
s(I1126
I14
tp3004
F12.565869091137415
s(I41
I390
tp3005
F71.4854819090246
s(I41
I857
tp3006
F99.215555139526344
s(I475
I845
tp3007
F67.753687786422518
s(I408
I41
tp3008
F18.748255257356007
s(I7
I3
tp3009
F1.3670413879819598
s(I1041
I392
tp3010
F56.62667514404496
s(I541
I1223
tp3011
F19.792459064811386
s(I652
I1409
tp3012
F5.4711751834844886
s(I126
I675
tp3013
F31.766144975437484
s(I253
I41
tp3014
F25.454092704871776
s(I168
I541
tp3015
F80.037810091716722
s(I58
I41
tp3016
F26.858322892961873
s(I574
I1041
tp3017
F3.5338195218181934
s(I1306
I41
tp3018
F6.7212045647018215
s(I541
I1400
tp3019
F23.804314368212999
s(I1083
I41
tp3020
F20.835971120895593
s(I473
I41
tp3021
F57.517829003365684
s(I1144
I41
tp3022
F27.209747269982067
s(I41
I635
tp3023
F72.832913978873549
s(I41
I669
tp3024
F52.487186020587814
s(I801
I1041
tp3025
F10.677225443540028
s(I639
I1041
tp3026
F12.061913879997233
s(I41
I382
tp3027
F84.287232721088941
s(I41
I817
tp3028
F71.942606058950034
s(I370
I41
tp3029
F25.236306520043428
s(I853
I1041
tp3030
F71.510390192001296
s(I1041
I496
tp3031
F41.573955401632347
s(I541
I1071
tp3032
F26.63451142585448
s(I541
I1434
tp3033
F31.10954522952456
s(I906
I1409
tp3034
F74.125967197180003
s(I345
I499
tp3035
F86.113826446971814
s(I1041
I429
tp3036
F4.286281298894334
s(I41
I399
tp3037
F4.3404850839552367
s(I1200
I41
tp3038
F66.278643662596622
s(I645
I1041
tp3039
F44.228609707899814
s(I443
I409
tp3040
F77.318237415364777
s(I409
I793
tp3041
F18.147907161843779
s(I541
I1216
tp3042
F26.456366171412526
s(I468
I541
tp3043
F84.476976096293313
s(I503
I1006
tp3044
F61.103998579363591
s(I1409
I419
tp3045
F47.457408491473572
s(I1428
I41
tp3046
F85.04486089526506
s(I681
I1041
tp3047
F16.28677618770401
s(I384
I41
tp3048
F25.805845570612153
s(I1126
I17
tp3049
F23.098570475077928
s(I41
I979
tp3050
F25.779878046380912
s(I478
I909
tp3051
F26.769103403734363
s(I541
I1393
tp3052
F94.051097668062226
s(I1265
I41
tp3053
F4.2883629494833819
s(I198
I541
tp3054
F0.48325480445037261
s(I415
I41
tp3055
F90.075262127321395
s(I90
I541
tp3056
F41.910151711856173
s(I1086
I41
tp3057
F64.33072251412429
s(I843
I1468
tp3058
F71.062218914026232
s(I41
I169
tp3059
F11.255405356264447
s(I576
I1041
tp3060
F8.3045597196435672
s(I409
I397
tp3061
F82.165053685544279
s(I1041
I344
tp3062
F7.0414030519320159
s(I1332
I361
tp3063
F5.0884611800022572
s(I449
I41
tp3064
F81.885956869320964
s(I909
I1406
tp3065
F53.208251042107911
s(I270
I41
tp3066
F14.63727530264366
s(I628
I1041
tp3067
F38.661323190852471
s(I41
I359
tp3068
F5.6080276559353432
s(I41
I826
tp3069
F31.752393597878147
s(I533
I1020
tp3070
F42.643193879540739
s(I351
I541
tp3071
F22.792942004379402
s(I1041
I489
tp3072
F20.663959676197319
s(I541
I1064
tp3073
F99.262277978063892
s(I541
I1427
tp3074
F77.758597435152794
s(I156
I541
tp3075
F82.689986609296369
s(I107
I41
tp3076
F53.583338290357688
s(I41
I496
tp3077
F19.357057382017828
s(I41
I843
tp3078
F22.364383901115048
s(I110
I909
tp3079
F31.713125274180797
s(I409
I175
tp3080
F98.516857384422693
s(I1041
I204
tp3081
F8.3366122693607103
s(I892
I1041
tp3082
F22.938013554296035
s(I419
I409
tp3083
F19.145408721242795
s(I1217
I345
tp3084
F15.844595834198383
s(I41
I980
tp3085
F90.388430182792007
s(I663
I1041
tp3086
F24.191732242816023
s(I1293
I409
tp3087
F21.064468288944493
s(I541
I1354
tp3088
F26.197686774517535
s(I468
I509
tp3089
F25.999832520266754
s(I699
I1041
tp3090
F22.522541273241004
s(I575
I1041
tp3091
F16.782312116393349
s(I41
I146
tp3092
F24.263670077294762
s(I409
I406
tp3093
F99.83020066833663
s(I1041
I337
tp3094
F15.873010879947048
s(I62
I909
tp3095
F80.11284317472402
s(I391
I41
tp3096
F30.717845126361411
s(I944
I1041
tp3097
F44.034686551423931
s(I1041
I338
tp3098
F13.964465499751
s(I1062
I41
tp3099
F72.422394471565283
s(I747
I1041
tp3100
F58.481456872242035
s(I345
I446
tp3101
F36.371330422568171
s(I1409
I476
tp3102
F93.197544118130622
s(I1041
I349
tp3103
F26.2419633818484
s(I1041
I165
tp3104
F36.583181941134725
s(I535
I1020
tp3105
F46.59841328905874
s(I1469
I41
tp3106
F38.06652555874912
s(I41
I360
tp3107
F22.031650384112289
s(I41
I803
tp3108
F73.766062756963564
s(I41
I758
tp3109
F22.142347163697607
s(I117
I541
tp3110
F73.850655090026265
s(I543
I1041
tp3111
F78.346487193176472
s(I1041
I482
tp3112
F71.313266279331316
s(I1041
I363
tp3113
F53.841423215121239
s(I17
I503
tp3114
F12.860214324475383
s(I1023
I20
tp3115
F96.680223561693424
s(I845
I1396
tp3116
F19.849110619906874
s(I41
I844
tp3117
F39.647008756142569
s(I1127
I41
tp3118
F70.737999951290277
s(I261
I41
tp3119
F79.463594212920412
s(I541
I1234
tp3120
F87.560114752411096
s(I968
I1228
tp3121
F51.179078606376429
s(I1337
I325
tp3122
F71.714040090152025
s(I1137
I41
tp3123
F19.580747793025942
s(I1121
I41
tp3124
F81.973123733943069
s(I311
I41
tp3125
F25.515385982240126
s(I41
I989
tp3126
F81.539834109793944
s(I1347
I41
tp3127
F10.807090663034524
s(I372
I41
tp3128
F95.256201870534227
s(I409
I660
tp3129
F12.34354138250473
s(I541
I1347
tp3130
F90.577970385950323
s(I1185
I41
tp3131
F9.7804713188548771
s(I394
I541
tp3132
F74.10393857259659
s(I1409
I43
tp3133
F74.556949403473354
s(I1041
I127
tp3134
F88.961920043911547
s(I197
I541
tp3135
F53.700025460664527
s(I420
I541
tp3136
F19.104452964456364
s(I38
I361
tp3137
F66.981728396502746
s(I223
I541
tp3138
F35.529659562599846
s(I409
I978
tp3139
F15.805416248781601
s(I409
I517
tp3140
F1.1225922776762265
s(I1456
I468
tp3141
F75.831909780321439
s(I160
I909
tp3142
F13.918523294850127
s(I30
I520
tp3143
F6.5096437937776974
s(I181
I41
tp3144
F15.572025281849754
s(I40
I520
tp3145
F61.41049764921771
s(I41
I337
tp3146
F54.530426494854275
s(I41
I804
tp3147
F22.636170813556333
s(I41
I767
tp3148
F75.858724414047245
s(I459
I541
tp3149
F50.980259466984513
s(I428
I41
tp3150
F68.214584994441665
s(I962
I1041
tp3151
F77.964188230990928
s(I953
I1041
tp3152
F48.755474640240323
s(I765
I1041
tp3153
F16.331398115202745
s(I1267
I41
tp3154
F54.158402223641687
s(I1106
I409
tp3155
F1.6834409000479833
s(I41
I482
tp3156
F48.178042072820638
s(I724
I1041
tp3157
F3.5436156315203138
s(I545
I1041
tp3158
F13.313726946531713
s(I541
I1195
tp3159
F68.278769104773971
s(I1337
I178
tp3160
F37.333277352194472
s(I503
I1013
tp3161
F43.594562689226102
s(I909
I1106
tp3162
F26.553200416797374
s(I1005
I409
tp3163
F15.766241077093845
s(I493
I41
tp3164
F52.600868504120868
s(I806
I1041
tp3165
F99.307009708875
s(I3
I517
tp3166
F39.488410657294672
s(I593
I1041
tp3167
F20.077873481101484
s(I298
I41
tp3168
F60.539070660832635
s(I541
I1372
tp3169
F14.202077331362107
s(I67
I409
tp3170
F7.5960787839155719
s(I1099
I41
tp3171
F12.31508818290089
s(I909
I1187
tp3172
F63.648469188535607
s(I1138
I361
tp3173
F74.889126471074675
s(I1361
I299
tp3174
F30.548971929451419
s(I348
I41
tp3175
F43.173093840832323
s(I23
I20
tp3176
F63.813218617777245
s(I1016
I3
tp3177
F28.958681913465988
s(I355
I41
tp3178
F98.568925260230159
s(I541
I1485
tp3179
F57.305135472292577
s(I1017
I126
tp3180
F17.684602605073273
s(I234
I541
tp3181
F94.558309098530117
s(I41
I346
tp3182
F1.5650641010579669
s(I41
I813
tp3183
F96.337818364128125
s(I41
I736
tp3184
F11.384502334657377
s(I873
I1409
tp3185
F89.206377464539699
s(I1041
I476
tp3186
F86.888009444722741
s(I339
I541
tp3187
F71.665231410786163
s(I157
I41
tp3188
F60.403102597763962
s(I1193
I41
tp3189
F52.530555177039709
s(I218
I41
tp3190
F25.859067307390969
s(I41
I491
tp3191
F64.924389008861255
s(I41
I958
tp3192
F72.412059755831251
s(I461
I541
tp3193
F64.47621190953457
s(I369
I541
tp3194
F72.239366125008459
s(I266
I541
tp3195
F94.13443242212378
s(I1243
I41
tp3196
F48.480584767146453
s(I69
I541
tp3197
F15.582636909015335
s(I503
I1010
tp3198
F10.721005553781083
s(I1008
I126
tp3199
F93.244102540952696
s(I1048
I41
tp3200
F91.083618319665703
s(I634
I1041
tp3201
F32.976682677431569
s(I41
I975
tp3202
F89.805887941544171
s(I598
I1041
tp3203
F11.684170997724486
s(I541
I1365
tp3204
F31.503344821821187
s(I1410
I41
tp3205
F52.913355038978629
s(I1409
I37
tp3206
F70.822728568808898
s(I17
I3
tp3207
F36.280688828768767
s(I537
I1409
tp3208
F56.550208100541042
s(I274
I41
tp3209
F16.372744221374735
s(I419
I541
tp3210
F9.5899006295876994
s(I41
I306
tp3211
F97.220066019204694
s(I41
I133
tp3212
F59.622417847911954
s(I480
I541
tp3213
F64.065521281991423
s(I1113
I41
tp3214
F78.426580341665428
s(I1041
I324
tp3215
F43.908490390400665
s(I541
I1478
tp3216
F12.571083841256703
s(I1409
I321
tp3217
F83.819164227489821
s(I1360
I41
tp3218
F90.892734197804756
s(I331
I41
tp3219
F50.096081831501195
s(I41
I790
tp3220
F50.662212006014094
s(I41
I745
tp3221
F13.672341860240511
s(I136
I41
tp3222
F51.24318727442575
s(I409
I845
tp3223
F4.4107854762325598
s(I11
I468
tp3224
F31.766269500853973
s(I220
I409
tp3225
F3.909131807036581
s(I41
I492
tp3226
F12.875037664676736
s(I41
I935
tp3227
F84.749472041947087
s(I337
I678
tp3228
F15.203897327208393
s(I1169
I41
tp3229
F20.362347242048486
s(I194
I41
tp3230
F38.212006274180645
s(I1246
I41
tp3231
F14.459732428142269
s(I821
I1041
tp3232
F82.418761553990933
s(I201
I41
tp3233
F87.01890786263165
s(I914
I1041
tp3234
F39.436000106558275
s(I45
I541
tp3235
F31.239536083745058
s(I1041
I247
tp3236
F76.38213254376538
s(I541
I1326
tp3237
F96.179391258234332
s(I106
I541
tp3238
F91.121502401561088
s(I251
I41
tp3239
F42.733986035365049
s(I837
I1250
tp3240
F2.9619254833038622
s(I89
I361
tp3241
F99.764215391230167
s(I56
I41
tp3242
F91.788397049124228
s(I185
I541
tp3243
F20.396340172514826
s(I20
I23
tp3244
F32.552318501639711
s(I41
I142
tp3245
F26.63658634168231
s(I41
I577
tp3246
F91.078670300184044
s(I1055
I41
tp3247
F2.5986912250049787
s(I1041
I317
tp3248
F1.3145681167554213
s(I1041
I128
tp3249
F27.696689493280779
s(I541
I1378
tp3250
F18.976083794141928
s(I837
I1139
tp3251
F19.620827705803368
s(I1089
I41
tp3252
F28.210033892290198
s(I41
I324
tp3253
F31.264308252553054
s(I41
I799
tp3254
F42.219008847455207
s(I64
I541
tp3255
F74.958429229334271
s(I121
I41
tp3256
F65.249276725439685
s(I815
I1041
tp3257
F98.797110013423563
s(I468
I909
tp3258
F73.701885576579045
s(I875
I1041
tp3259
F34.404670248533428
s(I368
I41
tp3260
F3.2888461477720732
s(I41
I469
tp3261
F70.402713345550666
s(I478
I968
tp3262
F87.773708499153287
s(I409
I711
tp3263
F38.671708288802932
s(I265
I541
tp3264
F66.862172345962094
s(I1115
I337
tp3265
F26.917578895170415
s(I342
I541
tp3266
F32.156319273522371
s(I291
I541
tp3267
F74.887554978725859
s(I643
I1041
tp3268
F5.8594491363890828
s(I352
I541
tp3269
F61.962869695210983
s(I41
I569
tp3270
F25.408859457960652
s(I1014
I3
tp3271
F30.00862570380125
s(I1222
I41
tp3272
F64.53131490059296
s(I177
I41
tp3273
F74.806694745971754
s(I1041
I469
tp3274
F5.7607504585046492
s(I34
I520
tp3275
F54.136958859188731
s(I254
I41
tp3276
F49.426995756025008
s(I1009
I126
tp3277
F22.189017190843675
s(I20
I30
tp3278
F88.897655539785177
s(I41
I316
tp3279
F99.930105737352974
s(I41
I247
tp3280
F81.724336831870161
s(I405
I41
tp3281
F91.059254077359313
s(I409
I379
tp3282
F4.6200176340850385
s(I541
I1133
tp3283
F98.989566620574465
s(I541
I1496
tp3284
F49.753069215891109
s(I581
I1041
tp3285
F51.191468546533315
s(I652
I1041
tp3286
F38.4698528146006
s(I1409
I160
tp3287
F56.017106588545531
s(I513
I1003
tp3288
F45.953639401390291
s(I1321
I409
tp3289
F51.889964973470434
s(I41
I333
tp3290
F51.311349175273094
s(I3
I514
tp3291
F1.3649874666494588
s(I41
I731
tp3292
F47.980296707260528
s(I1092
I41
tp3293
F13.64081542785609
s(I63
I41
tp3294
F80.682042011100677
s(I1393
I41
tp3295
F58.25392663380228
s(I1020
I28
tp3296
F7.7660410185548816
s(I432
I541
tp3297
F68.861863376038357
s(I1289
I41
tp3298
F43.833707142254688
s(I1142
I41
tp3299
F30.822240655507017
s(I41
I478
tp3300
F27.341492496811348
s(I97
I41
tp3301
F93.508918290288349
s(I919
I1409
tp3302
F3.1876007362975356
s(I541
I1167
tp3303
F38.108691483330283
s(I852
I1041
tp3304
F64.97271595735225
s(I1320
I41
tp3305
F81.142128435905562
s(I1120
I41
tp3306
F50.610331443145995
s(I633
I1041
tp3307
F37.947378666828058
s(I41
I111
tp3308
F49.544888983798828
s(I41
I546
tp3309
F60.356120134209824
s(I1041
I225
tp3310
F24.977492186837747
s(I541
I1312
tp3311
F44.855160275367254
s(I105
I541
tp3312
F89.708372991348355
s(I345
I896
tp3313
F72.37780397842451
s(I20
I37
tp3314
F15.214645162789797
s(I41
I293
tp3315
F6.6642757045877632
s(I41
I248
tp3316
F12.221017066167772
s(I41
I691
tp3317
F33.126221685528265
s(I409
I951
tp3318
F64.030737043276659
s(I941
I1468
tp3319
F32.875730201909469
s(I541
I1489
tp3320
F98.781034438454014
s(I230
I41
tp3321
F13.496091456721803
s(I397
I909
tp3322
F88.236345701424895
s(I342
I845
tp3323
F87.903208593738327
s(I1005
I3
tp3324
F26.770450242639733
s(I523
I1020
tp3325
F90.800771335693625
s(I1468
I343
tp3326
F33.553635041397392
s(I41
I255
tp3327
F31.903424425201933
s(I41
I438
tp3328
F15.985438871504154
s(I41
I777
tp3329
F36.6960483062267
s(I442
I41
tp3330
F88.53270321638314
s(I137
I541
tp3331
F62.23728592704547
s(I409
I800
tp3332
F44.221423710177255
s(I541
I1047
tp3333
F68.899955910724913
s(I1409
I11
tp3334
F28.861053520866996
s(I745
I1041
tp3335
F1.4951923375652432
s(I214
I541
tp3336
F11.641862679656622
s(I1373
I409
tp3337
F92.950062685667476
s(I1337
I258
tp3338
F81.165566566972601
s(I1467
I41
tp3339
F18.857642894998239
s(I1068
I41
tp3340
F60.815580248136278
s(I41
I455
tp3341
F51.818471490646921
s(I41
I922
tp3342
F31.002114235194789
s(I135
I541
tp3343
F46.06355400135763
s(I100
I41
tp3344
F51.653427000996665
s(I3
I13
tp3345
F35.431943830047217
s(I1468
I8
tp3346
F36.834234564156809
s(I259
I41
tp3347
F87.534196419298922
s(I409
I468
tp3348
F56.56628317192672
s(I1041
I218
tp3349
F94.200672201401687
s(I541
I1337
tp3350
F3.072583636062165
s(I1406
I409
tp3351
F81.624867463042776
s(I803
I1041
tp3352
F48.370308629732882
s(I918
I1041
tp3353
F58.123872827014502
s(I126
I6
tp3354
F59.897208642355636
s(I41
I302
tp3355
F23.400200278669402
s(I41
I225
tp3356
F46.369836120984743
s(I294
I541
tp3357
F7.5565609834774001
s(I441
I861
tp3358
F16.845325921721987
s(I1027
I20
tp3359
F85.53720221272286
s(I9
I968
tp3360
F15.292529499438224
s(I304
I541
tp3361
F95.697549904729257
s(I658
I1041
tp3362
F38.563709880439831
s(I41
I338
tp3363
F37.968666905365502
s(I399
I541
tp3364
F62.636507306173641
s(I698
I1041
tp3365
F82.951166374085432
s(I41
I882
tp3366
F86.941855185803135
s(I477
I541
tp3367
F32.784933179989494
s(I614
I1041
tp3368
F78.928144836966908
s(I84
I541
tp3369
F4.5584824073018781
s(I468
I343
tp3370
F86.1951117354253
s(I179
I41
tp3371
F55.890587395053196
s(I418
I41
tp3372
F27.334627158361503
s(I41
I456
tp3373
F83.732773807254603
s(I41
I899
tp3374
F12.426332326046952
s(I1062
I409
tp3375
F95.428973517209684
s(I542
I1041
tp3376
F93.666476668700383
s(I468
I9
tp3377
F42.198697883453463
s(I41
I437
tp3378
F84.481028288859022
s(I20
I527
tp3379
F44.639708526203279
s(I1095
I41
tp3380
F82.297512602044421
s(I76
I41
tp3381
F42.376501762467058
s(I41
I89
tp3382
F51.006067334846307
s(I41
I556
tp3383
F60.757972688513938
s(I409
I16
tp3384
F16.406361170910788
s(I541
I1330
tp3385
F82.851279122718211
s(I126
I9
tp3386
F25.880177428723162
s(I491
I41
tp3387
F31.585283081832571
s(I471
I968
tp3388
F2.9203808672340403
s(I769
I1041
tp3389
F61.109296543602497
s(I41
I234
tp3390
F23.833709618333842
s(I41
I701
tp3391
F48.129221600351165
s(I1299
I41
tp3392
F64.91775876956936
s(I409
I897
tp3393
F60.705068690427765
s(I541
I1443
tp3394
F12.985441840380929
s(I1152
I361
tp3395
F1.0077908562861171
s(I713
I1041
tp3396
F84.263776811393527
s(I1390
I41
tp3397
F71.486361929790249
s(I966
I1041
tp3398
F93.318793428652342
s(I1031
I20
tp3399
F45.672871108888067
s(I21
I20
tp3400
F12.813622425733007
s(I41
I891
tp3401
F91.982907662660523
s(I41
I718
tp3402
F4.8198285161556775
s(I1041
I426
tp3403
F25.771222116492265
s(I869
I1041
tp3404
F21.068246841248563
s(I410
I541
tp3405
F28.712372797254037
s(I361
I41
tp3406
F86.0272616433205
s(I436
I541
tp3407
F80.451691189873472
s(I239
I541
tp3408
F48.527055873031664
s(I649
I1041
tp3409
F20.32589472046681
s(I41
I900
tp3410
F19.259102514970383
s(I1199
I41
tp3411
F19.243483155200813
s(I1038
I361
tp3412
F21.469833770227176
s(I155
I41
tp3413
F16.971643406048752
s(I12
I3
tp3414
F94.484902763436864
s(I909
I1053
tp3415
F56.548072103977788
s(I216
I41
tp3416
F22.5709410879934
s(I1270
I41
tp3417
F84.313878310542194
s(I20
I534
tp3418
F51.775747714199902
s(I861
I1299
tp3419
F1.6255734323208704
s(I496
I541
tp3420
F58.816806971334621
s(I528
I1020
tp3421
F56.941618851951681
s(I281
I409
tp3422
F5.0965785901665566
s(I541
I1291
tp3423
F63.51684200528878
s(I356
I845
tp3424
F31.039445073647741
s(I856
I1345
tp3425
F53.687472681792606
s(I1409
I454
tp3426
F39.855886622524771
s(I1363
I41
tp3427
F32.938912281583242
s(I1041
I173
tp3428
F1.610321885258581
s(I41
I280
tp3429
F19.28106235779622
s(I596
I1041
tp3430
F93.933574099757038
s(I409
I343
tp3431
F11.591891162003465
s(I409
I906
tp3432
F86.543962002637187
s(I541
I1468
tp3433
F52.133585330674379
s(I319
I541
tp3434
F77.98511376765947
s(I1316
I41
tp3435
F71.727446334921154
s(I909
I1005
tp3436
F49.638692168975261
s(I272
I41
tp3437
F92.903299030643311
s(I41
I425
tp3438
F9.4054297566970817
s(I41
I892
tp3439
F17.49140212465672
s(I1366
I41
tp3440
F21.318767957863884
s(I541
I1250
tp3441
F47.238753865738268
s(I1020
I32
tp3442
F98.537432520046735
s(I1457
I41
tp3443
F10.989049240980297
s(I1287
I41
tp3444
F86.813936453855078
s(I41
I909
tp3445
F76.533670779678914
s(I337
I41
tp3446
F61.785971810622698
s(I67
I909
tp3447
F90.496875334815513
s(I1041
I288
tp3448
F32.55838223063796
s(I158
I41
tp3449
F57.489464342952367
s(I396
I345
tp3450
F10.540234511164803
s(I1041
I72
tp3451
F67.384555798579967
s(I1175
I41
tp3452
F92.191160108360876
s(I541
I1159
tp3453
F58.126767543922739
s(I1236
I41
tp3454
F61.760044423351367
s(I41
I913
tp3455
F32.948672367487831
s(I192
I41
tp3456
F22.168111560263881
s(I1041
I205
tp3457
F55.632300648317269
s(I541
I1284
tp3458
F1.7924576058933384
s(I1409
I175
tp3459
F37.727021247796209
s(I837
I1283
tp3460
F19.265698935532239
s(I912
I1041
tp3461
F31.7790283117785
s(I715
I1041
tp3462
F29.92944481347276
s(I166
I541
tp3463
F79.196144261646822
s(I223
I41
tp3464
F52.504955346061053
s(I520
I1025
tp3465
F98.682077261844512
s(I946
I1041
tp3466
F33.507756230365651
s(I282
I541
tp3467
F58.38978544490525
s(I1041
I267
tp3468
F17.09277169501544
s(I85
I541
tp3469
F77.840775322079836
s(I767
I1041
tp3470
F26.667741244072818
s(I1037
I409
tp3471
F9.0145035412447001
s(I41
I402
tp3472
F65.696825479805909
s(I41
I869
tp3473
F81.230084460624624
s(I78
I41
tp3474
F51.311146733458145
s(I1292
I41
tp3475
F0.33437099619051391
s(I1041
I420
tp3476
F21.694122761511903
s(I541
I1275
tp3477
F34.251979845539836
s(I356
I541
tp3478
F73.774766090003425
s(I13
I503
tp3479
F35.490181541731879
s(I15
I503
tp3480
F26.413789217978756
s(I435
I541
tp3481
F73.628431350595164
s(I1468
I9
tp3482
F93.407726260679638
s(I775
I1041
tp3483
F21.133749188549046
s(I1140
I41
tp3484
F63.439869301102334
s(I541
I1388
tp3485
F9.8236176196197178
s(I1357
I41
tp3486
F86.125061518953203
s(I165
I541
tp3487
F44.213173925397832
s(I1162
I41
tp3488
F25.55093295097549
s(I24
I20
tp3489
F13.548832583187053
s(I388
I541
tp3490
F31.764259055868159
s(I409
I432
tp3491
F48.477980205549173
s(I409
I606
tp3492
F9.0933169797741353
s(I541
I1309
tp3493
F18.059680247670372
s(I468
I728
tp3494
F97.320621718707898
s(I1041
I462
tp3495
F62.111763395020958
s(I909
I1252
tp3496
F77.411523366600562
s(I1139
I337
tp3497
F24.561921640393024
s(I1212
I41
tp3498
F58.642285745079839
s(I879
I1409
tp3499
F8.6086955122023578
s(I41
I266
tp3500
F15.92788705627286
s(I520
I1032
tp3501
F6.2535316409526249
s(I6
I503
tp3502
F61.652948014784833
s(I1041
I268
tp3503
F93.681609593627513
s(I541
I1422
tp3504
F11.357232312440091
s(I409
I14
tp3505
F95.871150042345988
s(I1403
I41
tp3506
F16.564621046731009
s(I32
I520
tp3507
F30.168978043452586
s(I541
I1320
tp3508
F8.2804463978716889
s(I126
I504
tp3509
F99.608773019829457
s(I199
I41
tp3510
F68.119619305865641
s(I845
I1366
tp3511
F95.99011330604263
s(I37
I361
tp3512
F35.360586526104278
s(I403
I41
tp3513
F30.670730797843081
s(I41
I878
tp3514
F10.629842396402122
s(I61
I541
tp3515
F38.413877956917752
s(I337
I861
tp3516
F96.614551557119853
s(I122
I541
tp3517
F86.518676555730892
s(I548
I1041
tp3518
F19.967798451929863
s(I1082
I41
tp3519
F38.547350153959037
s(I1041
I417
tp3520
F36.677250758110858
s(I54
I41
tp3521
F17.793648307362432
s(I1475
I345
tp3522
F49.360408171580261
s(I774
I1041
tp3523
F10.246152726017876
s(I409
I67
tp3524
F85.842866201723353
s(I337
I750
tp3525
F56.883200455402694
s(I541
I1381
tp3526
F27.19752028912702
s(I69
I41
tp3527
F89.221610169244244
s(I126
I513
tp3528
F41.148748424821477
s(I1118
I41
tp3529
F56.118508065657181
s(I685
I1041
tp3530
F1.2301894628526377
s(I613
I1041
tp3531
F77.37064496387535
s(I1024
I20
tp3532
F64.091969468632442
s(I1041
I372
tp3533
F61.203834368250057
s(I119
I41
tp3534
F28.062636147150645
s(I541
I1302
tp3535
F96.297944291544937
s(I1337
I78
tp3536
F47.844740656067287
s(I141
I541
tp3537
F18.422274127121195
s(I1394
I41
tp3538
F17.34411554336247
s(I202
I541
tp3539
F44.749975610857263
s(I167
I541
tp3540
F26.191132874523117
s(I41
I665
tp3541
F5.7686641605542714
s(I228
I541
tp3542
F29.337265244116061
s(I281
I541
tp3543
F9.6573476983697439
s(I541
I1415
tp3544
F52.99832791899555
s(I307
I541
tp3545
F69.360057686782795
s(I561
I1041
tp3546
F1.5415506078145569
s(I41
I412
tp3547
F48.515140817286927
s(I41
I855
tp3548
F42.451877666013438
s(I744
I1041
tp3549
F74.17685073909928
s(I337
I131
tp3550
F22.374607805812154
s(I429
I541
tp3551
F19.454545500376309
s(I1408
I41
tp3552
F81.912885983882788
s(I490
I541
tp3553
F93.947705048821149
s(I968
I1008
tp3554
F92.719416622339963
s(I236
I41
tp3555
F93.907157571214114
s(I440
I41
tp3556
F45.455954007300448
s(I41
I45
tp3557
F34.142275655209012
s(I41
I992
tp3558
F67.365153741315297
s(I6
I626
tp3559
F66.656398676184253
s(I454
I541
tp3560
F54.149480626560475
s(I1058
I41
tp3561
F60.080117646427411
s(I589
I1361
tp3562
F40.640519826263322
s(I566
I1041
tp3563
F56.224671694048759
s(I508
I1468
tp3564
F50.202638735724967
s(I1045
I41
tp3565
F93.051229173953516
s(I34
I20
tp3566
F96.419622998595685
s(I721
I1041
tp3567
F68.753968997129334
s(I41
I190
tp3568
F57.727660466785039
s(I1473
I41
tp3569
F42.050146819161149
s(I538
I1361
tp3570
F54.48301317714985
s(I387
I541
tp3571
F16.125201696704806
s(I45
I41
tp3572
F59.012847121711346
s(I1294
I41
tp3573
F68.863947480866372
s(I448
I541
tp3574
F70.391670918996681
s(I106
I41
tp3575
F24.901025490437078
s(I626
I1005
tp3576
F12.5794981751576
s(I41
I372
tp3577
F24.599938752438856
s(I631
I1041
tp3578
F87.763052075170265
s(I41
I642
tp3579
F16.527267727327754
s(I1096
I41
tp3580
F65.677859465025307
s(I337
I363
tp3581
F89.628901728216249
s(I541
I1408
tp3582
F97.731245727968869
s(I638
I1361
tp3583
F39.655015058350074
s(I345
I475
tp3584
F40.286663264683952
s(I842
I1345
tp3585
F74.738105965243435
s(I1041
I407
tp3586
F38.212343676989505
s(I1359
I41
tp3587
F98.069277194800819
s(I41
I856
tp3588
F75.197452739686057
s(I409
I220
tp3589
F75.94439208892544
s(I761
I1041
tp3590
F95.008034544318889
s(I121
I541
tp3591
F66.12142529216672
s(I1443
I409
tp3592
F94.201513431534579
s(I1409
I281
tp3593
F50.557265627034951
s(I866
I1345
tp3594
F17.221034030481299
s(I337
I728
tp3595
F22.085699596398378
s(I541
I1399
tp3596
F46.714309315970802
s(I996
I1041
tp3597
F21.381588375030759
s(I175
I626
tp3598
F90.002015399517575
s(I1041
I477
tp3599
F5.1640296490785831
s(I416
I41
tp3600
F48.813521763769153
s(I74
I541
tp3601
F99.742655343326817
s(I1191
I41
tp3602
F95.40741042877832
s(I1337
I203
tp3603
F18.441037439291652
s(I41
I167
tp3604
F42.75659286071469
s(I153
I541
tp3605
F82.081736057922768
s(I974
I1041
tp3606
F63.183709699999625
s(I1041
I358
tp3607
F22.844701682834355
s(I1041
I169
tp3608
F99.706053283065444
s(I447
I41
tp3609
F59.931261741590937
s(I35
I20
tp3610
F60.673641518015131
s(I783
I1041
tp3611
F55.070789689073393
s(I541
I1401
tp3612
F79.295566343987502
s(I41
I381
tp3613
F41.136801853999515
s(I41
I816
tp3614
F75.395647507343028
s(I481
I41
tp3615
F52.370409123059645
s(I82
I41
tp3616
F53.110916001552553
s(I409
I879
tp3617
F89.211225469067529
s(I541
I1433
tp3618
F78.596500564557374
s(I302
I41
tp3619
F7.1234870302818827
s(I345
I476
tp3620
F99.264269572160742
s(I1285
I41
tp3621
F96.105214265096919
s(I1345
I342
tp3622
F79.452970822860635
s(I41
I833
tp3623
F35.361640491047467
s(I538
I1409
tp3624
F56.650828116571915
s(I1041
I384
tp3625
F59.814082170121509
s(I541
I1247
tp3626
F85.26517286107314
s(I468
I971
tp3627
F59.444857778955217
s(I1335
I41
tp3628
F67.594611371137532
s(I489
I541
tp3629
F10.229157679383871
s(I1029
I20
tp3630
F25.189323222683623
s(I1041
I195
tp3631
F42.00152622127964
s(I1396
I41
tp3632
F79.078760092172004
s(I310
I541
tp3633
F40.066065382348228
s(I367
I41
tp3634
F22.901150179858298
s(I41
I978
tp3635
F23.965640977820325
s(I320
I541
tp3636
F88.808545238128275
s(I541
I1392
tp3637
F85.232098765279702
s(I89
I541
tp3638
F74.876463908263901
s(I41
I168
tp3639
F31.463446618454917
s(I41
I611
tp3640
F46.518876717781296
s(I1337
I41
tp3641
F38.189339254892943
s(I1041
I351
tp3642
F88.267632905543451
s(I1205
I41
tp3643
F86.164875708851568
s(I909
I1405
tp3644
F16.632075166229342
s(I1101
I41
tp3645
F21.400021912991775
s(I541
I1244
tp3646
F0.7313986011800222
s(I41
I358
tp3647
F83.134624786536818
s(I4
I126
tp3648
F10.259886466966005
s(I423
I41
tp3649
F79.992447430539727
s(I1041
I488
tp3650
F52.50907068524738
s(I484
I41
tp3651
F94.83231744917147
s(I5
I409
tp3652
F7.6624309636058596
s(I397
I409
tp3653
F32.251384595874711
s(I115
I541
tp3654
F56.215287303239315
s(I400
I541
tp3655
F73.168764319645575
s(I1046
I41
tp3656
F54.973980253521844
s(I41
I842
tp3657
F45.849793300350719
s(I278
I41
tp3658
F11.572181113350343
s(I780
I1041
tp3659
F17.638679922200851
s(I468
I978
tp3660
F99.066119296387171
s(I361
I839
tp3661
F41.038369894032996
s(I345
I342
tp3662
F95.903571087670571
s(I1322
I41
tp3663
F75.531502770444831
s(I623
I1041
tp3664
F30.481552244491215
s(I293
I41
tp3665
F58.050351119364827
s(I41
I987
tp3666
F4.792340242380444
s(I441
I541
tp3667
F76.624142506837885
s(I337
I714
tp3668
F44.647673181959682
s(I541
I1353
tp3669
F25.690694650132784
s(I1372
I41
tp3670
F30.191607056050351
s(I1416
I41
tp3671
F13.513949743826625
s(I343
I41
tp3672
F84.6458621045076
s(I471
I468
tp3673
F41.24537492905479
s(I73
I541
tp3674
F40.219611414423163
s(I1214
I337
tp3675
F93.569652029107445
s(I1379
I41
tp3676
F28.696623691223479
s(I148
I41
tp3677
F49.851696055958286
s(I99
I541
tp3678
F61.566565521575356
s(I648
I1041
tp3679
F8.4427087596645638
s(I409
I405
tp3680
F67.975434881396794
s(I409
I968
tp3681
F65.693440665739772
s(I1019
I3
tp3682
F5.6084034228514597
s(I1337
I106
tp3683
F9.902014625850498
s(I41
I362
tp3684
F88.361508383131664
s(I1042
I409
tp3685
F17.531164938861231
s(I41
I367
tp3686
F37.777075771224602
s(I41
I802
tp3687
F58.959903566389571
s(I1041
I191
tp3688
F37.828014399669271
s(I541
I1459
tp3689
F85.96251832164387
s(I1041
I481
tp3690
F10.30650719766526
s(I541
I1056
tp3691
F90.37331844083387
s(I1015
I3
tp3692
F24.602255617198065
s(I213
I41
tp3693
F26.726109021400678
s(I1409
I243
tp3694
F89.851550573432007
s(I182
I541
tp3695
F43.932599901116532
s(I460
I41
tp3696
F74.033740505508831
s(I943
I1041
tp3697
F32.321539835035239
s(I541
I1233
tp3698
F21.521045708301045
s(I1043
I41
tp3699
F12.007371095798437
s(I1337
I324
tp3700
F60.514552895944242
s(I2
I501
tp3701
F89.317513838944578
s(I240
I541
tp3702
F59.686031129197005
s(I41
I768
tp3703
F59.164163617327546
s(I42
I409
tp3704
F55.187578186511544
s(I991
I1041
tp3705
F26.340265428390463
s(I335
I541
tp3706
F79.778104833098638
s(I541
I1346
tp3707
F21.639847806925317
s(I1298
I41
tp3708
F45.409442681378934
s(I1149
I41
tp3709
F89.669922726735834
s(I269
I41
tp3710
F60.32779865259954
s(I771
I1041
tp3711
F98.406746811083806
s(I902
I1041
tp3712
F45.045039869767912
s(I330
I41
tp3713
F41.10981086706952
s(I409
I516
tp3714
F86.432071360477252
s(I1178
I41
tp3715
F1.2236643034549632
s(I1041
I455
tp3716
F37.6484877592831
s(I380
I41
tp3717
F49.731540796604413
s(I882
I1041
tp3718
F13.914045844689193
s(I1032
I20
tp3719
F84.229544661977855
s(I1361
I322
tp3720
F28.742199837170702
s(I41
I336
tp3721
F67.010025961826756
s(I41
I811
tp3722
F92.01978405653071
s(I41
I766
tp3723
F8.166780393774042
s(I666
I1041
tp3724
F68.73146716481267
s(I138
I861
tp3725
F78.985094287135709
s(I922
I1041
tp3726
F59.063607754873274
s(I18
I503
tp3727
F52.881686346704804
s(I1041
I210
tp3728
F38.802449398033744
s(I718
I1041
tp3729
F18.412501785606306
s(I1010
I3
tp3730
F95.987745955478005
s(I41
I481
tp3731
F87.953467529009828
s(I41
I948
tp3732
F36.542881593795862
s(I189
I41
tp3733
F20.200123557376781
s(I1225
I41
tp3734
F29.342903194884475
s(I250
I41
tp3735
F71.185691505379936
s(I503
I1012
tp3736
F58.484114767924389
s(I766
I1041
tp3737
F25.681793569294321
s(I41
I965
tp3738
F15.748716266311524
s(I1111
I41
tp3739
F42.576772384611814
s(I980
I1041
tp3740
F27.035270295210857
s(I409
I41
tp3741
F37.276585214623317
s(I1080
I41
tp3742
F4.5281794699273519
s(I1041
I354
tp3743
F55.285354574990777
s(I867
I1041
tp3744
F43.239191445488913
s(I1409
I406
tp3745
F63.422079717975031
s(I163
I909
tp3746
F82.313222963180493
s(I1037
I361
tp3747
F22.857117543423978
s(I1247
I41
tp3748
F98.780951437264847
s(I993
I1041
tp3749
F44.333258729998313
s(I1401
I41
tp3750
F36.642914969767148
s(I372
I541
tp3751
F28.647266960821415
s(I281
I909
tp3752
F57.209006457592814
s(I67
I41
tp3753
F88.598376029168293
s(I306
I41
tp3754
F7.0768590810513015
s(I506
I1003
tp3755
F60.163986537860936
s(I476
I345
tp3756
F91.258075339208546
s(I41
I345
tp3757
F8.2148471328601822
s(I41
I812
tp3758
F77.307537483388799
s(I41
I743
tp3759
F16.824511424706213
s(I337
I787
tp3760
F68.594098859690888
s(I102
I541
tp3761
F9.1389010762142124
s(I1392
I41
tp3762
F72.779009417751851
s(I837
I1041
tp3763
F75.544991331767477
s(I181
I541
tp3764
F49.223643149433059
s(I404
I541
tp3765
F76.020951745427695
s(I41
I957
tp3766
F42.574964499585185
s(I243
I409
tp3767
F49.892536814408984
s(I1160
I41
tp3768
F81.337811375866139
s(I250
I541
tp3769
F77.694802540888645
s(I541
I1187
tp3770
F56.348348177318321
s(I1409
I382
tp3771
F71.510868811777613
s(I1201
I41
tp3772
F41.684098462472065
s(I226
I41
tp3773
F21.549104031226229
s(I409
I511
tp3774
F95.801834228100844
s(I337
I106
tp3775
F87.788115611028488
s(I1041
I253
tp3776
F53.537507663230301
s(I541
I1364
tp3777
F25.2568412320053
s(I990
I1041
tp3778
F28.995393349184628
s(I909
I1243
tp3779
F45.2580437517299
s(I1429
I41
tp3780
F60.298287950992126
s(I385
I41
tp3781
F96.811221919647124
s(I1056
I41
tp3782
F81.586684616119967
s(I337
I304
tp3783
F80.769309140571139
s(I564
I1041
tp3784
F62.139970794844189
s(I541
I1477
tp3785
F33.23169852194097
s(I287
I541
tp3786
F36.824006961406596
s(I1290
I41
tp3787
F85.067355837203408
s(I1087
I41
tp3788
F93.682795824630816
s(I41
I322
tp3789
F86.494247743778175
s(I41
I789
tp3790
F11.580044500797415
s(I41
I744
tp3791
F83.179398173149607
s(I43
I41
tp3792
F42.86128171490526
s(I612
I1041
tp3793
F39.751442444615307
s(I409
I281
tp3794
F16.627937308772822
s(I1041
I468
tp3795
F33.647884121340745
s(I104
I41
tp3796
F61.706896572537048
s(I1041
I499
tp3797
F18.159579033474536
s(I507
I1003
tp3798
F83.681823996932309
s(I826
I1041
tp3799
F36.640421937936232
s(I271
I41
tp3800
F91.7608067127738
s(I41
I467
tp3801
F36.617883815084916
s(I41
I934
tp3802
F54.335823244409134
s(I1041
I256
tp3803
F56.338787364993181
s(I541
I1437
tp3804
F49.755813747234988
s(I855
I1041
tp3805
F63.475636849625637
s(I218
I541
tp3806
F92.429489557764342
s(I183
I541
tp3807
F0.35698130948369489
s(I610
I1409
tp3808
F85.873968643603177
s(I41
I567
tp3809
F95.859997215959751
s(I87
I541
tp3810
F84.346354927933859
s(I518
I1003
tp3811
F77.094356479328908
s(I670
I1041
tp3812
F0.082719547696974427
s(I891
I1041
tp3813
F94.209309382849554
s(I541
I1325
tp3814
F35.308166543126198
s(I1041
I309
tp3815
F21.605475409629314
s(I537
I1020
tp3816
F87.118208553679921
s(I41
I141
tp3817
F3.3320819023730519
s(I1254
I41
tp3818
F40.524155036321105
s(I683
I1041
tp3819
F27.646053084456558
s(I388
I41
tp3820
F94.804402598577497
s(I445
I541
tp3821
F54.552308342773735
s(I409
I932
tp3822
F95.598234386191905
s(I409
I543
tp3823
F96.204329266744253
s(I343
I968
tp3824
F41.893267641201795
s(I345
I409
tp3825
F49.41254315108273
s(I1466
I41
tp3826
F3.4079210235974156
s(I735
I1041
tp3827
F98.344529233061266
s(I438
I41
tp3828
F89.140576560417344
s(I41
I331
tp3829
F0.72813017429433913
s(I41
I798
tp3830
F15.570473629891058
s(I11
I626
tp3831
F5.9990613815275484
s(I263
I541
tp3832
F77.69593933502837
s(I1063
I41
tp3833
F17.843973204814834
s(I324
I541
tp3834
F27.778870417323908
s(I453
I41
tp3835
F97.559031938601166
s(I127
I541
tp3836
F51.840043243736602
s(I1124
I41
tp3837
F18.715740637631274
s(I41
I468
tp3838
F21.955786266966559
s(I41
I943
tp3839
F70.726254171447607
s(I80
I41
tp3840
F22.117747925169528
s(I630
I1041
tp3841
F53.443836034549584
s(I337
I203
tp3842
F96.19318854138686
s(I541
I1205
tp3843
F36.275849838140509
s(I379
I909
tp3844
F3.450683819992939
s(I1283
I41
tp3845
F62.741630559588401
s(I308
I41
tp3846
F78.624888830642732
s(I1494
I41
tp3847
F84.492378920844146
s(I41
I568
tp3848
F34.848478808656935
s(I1041
I239
tp3849
F83.684760506258016
s(I451
I409
tp3850
F94.214961885824394
s(I837
I1258
tp3851
F38.956110597520535
s(I350
I541
tp3852
F32.055790125117092
s(I20
I31
tp3853
F79.98580235595071
s(I41
I291
tp3854
F62.675712355332699
s(I1366
I345
tp3855
F1.5120069123175761
s(I558
I1041
tp3856
F81.817070282121918
s(I672
I1041
tp3857
F92.692647882835502
s(I373
I41
tp3858
F30.144604816025765
s(I541
I1495
tp3859
F41.314029751354695
s(I1041
I159
tp3860
F27.513999100165144
s(I932
I1409
tp3861
F47.23022665221346
s(I3
I506
tp3862
F45.445395858759042
s(I41
I775
tp3863
F10.475653630902293
s(I701
I1041
tp3864
F35.734592883186068
s(I8
I3
tp3865
F79.254894944721016
s(I1203
I41
tp3866
F43.864662544415737
s(I1041
I454
tp3867
F1.5350874073734255
s(I321
I409
tp3868
F95.440910701353403
s(I1442
I41
tp3869
F43.034314142604288
s(I457
I541
tp3870
F88.082699461165177
s(I1020
I29
tp3871
F34.919899953554655
s(I345
I856
tp3872
F18.223995276425022
s(I287
I837
tp3873
F49.654317416158776
s(I737
I1041
tp3874
F48.850494914594698
s(I1468
I456
tp3875
F67.10889251198779
s(I41
I477
tp3876
F76.569754053034828
s(I41
I912
tp3877
F41.167416771680784
s(I429
I41
tp3878
F13.87684090655239
s(I103
I541
tp3879
F0.78347743086648602
s(I1033
I20
tp3880
F26.484023336468788
s(I3
I10
tp3881
F38.345597172716737
s(I490
I41
tp3882
F0.059267950484354071
s(I459
I41
tp3883
F37.486652130253852
s(I41
I545
tp3884
F25.163432076551885
s(I406
I909
tp3885
F41.052315616410326
s(I243
I541
tp3886
F84.712934938595424
s(I409
I466
tp3887
F68.4843746498846
s(I409
I5
tp3888
F66.944349065624408
s(I541
I1343
tp3889
F60.329645926852479
s(I284
I41
tp3890
F10.703969074798891
s(I514
I1409
tp3891
F91.34676600901534
s(I909
I1339
tp3892
F41.822736773829824
s(I35
I520
tp3893
F24.929901437443846
s(I291
I41
tp3894
F47.381358600330934
s(I20
I38
tp3895
F48.361083140052827
s(I41
I292
tp3896
F38.269695178764742
s(I3
I509
tp3897
F85.791938823611176
s(I41
I690
tp3898
F81.55035719137733
s(I170
I541
tp3899
F49.794005216502349
s(I337
I283
tp3900
F82.271102370344877
s(I1041
I302
tp3901
F57.423636697323424
s(I541
I1488
tp3902
F86.335147198007178
s(I375
I409
tp3903
F44.583093249835002
s(I196
I541
tp3904
F24.373826498549477
s(I1041
I258
tp3905
F55.888642162225608
s(I27
I520
tp3906
F93.335359341013231
s(I275
I541
tp3907
F56.930609853695621
s(I349
I41
tp3908
F89.595027016531802
s(I1385
I41
tp3909
F98.677621351639459
s(I154
I41
tp3910
F9.7303219707377426
s(I541
I1046
tp3911
F1.9360325927580746
s(I571
I1041
tp3912
F46.784186802912863
s(I397
I541
tp3913
F42.529048768202081
s(I1126
I6
tp3914
F57.971366147185236
s(I709
I1041
tp3915
F15.926749996462652
s(I1409
I405
tp3916
F92.48483119647355
s(I458
I541
tp3917
F61.757867216118292
s(I1179
I41
tp3918
F86.903041377887774
s(I41
I454
tp3919
F65.723605059397556
s(I41
I921
tp3920
F63.905073694320592
s(I738
I1041
tp3921
F56.307426012990469
s(I1240
I41
tp3922
F90.921274481915489
s(I409
I720
tp3923
F99.024104022380584
s(I211
I41
tp3924
F1.2755608222784431
s(I1154
I361
tp3925
F84.398487246013701
s(I15
I3
tp3926
F21.394717647400629
s(I660
I1409
tp3927
F62.13750510875704
s(I1158
I41
tp3928
F48.797335667990296
s(I1417
I41
tp3929
F0.45552920861636759
s(I9
I126
tp3930
F42.104756612507522
s(I466
I41
tp3931
F38.110198856139256
s(I432
I409
tp3932
F12.129311431935175
s(I909
I1332
tp3933
F54.855317360697654
s(I909
I1211
tp3934
F36.838716806105708
s(I416
I541
tp3935
F61.226823334375993
s(I1049
I41
tp3936
F60.973942533484184
s(I41
I301
tp3937
F70.764774324476562
s(I1126
I9
tp3938
F23.043918583031029
s(I41
I699
tp3939
F10.825137465769341
s(I618
I1041
tp3940
F68.989561086888656
s(I599
I1041
tp3941
F75.837972971952482
s(I1296
I41
tp3942
F85.195625083638234
s(I1128
I41
tp3943
F65.575236926751955
s(I1041
I495
tp3944
F12.193474135785864
s(I267
I41
tp3945
F31.5492286651588
s(I587
I1468
tp3946
F44.701743312804496
s(I1041
I440
tp3947
F64.540112769712792
s(I328
I41
tp3948
F30.617351110276779
s(I252
I541
tp3949
F11.951205956188971
s(I923
I1041
tp3950
F91.169291261569853
s(I41
I446
tp3951
F62.522377338133438
s(I41
I881
tp3952
F22.216664622004945
s(I751
I1041
tp3953
F63.101044683160843
s(I541
I1283
tp3954
F91.999368726923677
s(I1041
I432
tp3955
F53.527534186878455
s(I17
I626
tp3956
F86.512526756382897
s(I126
I300
tp3957
F98.989248845825529
s(I845
I1282
tp3958
F36.767258292483163
s(I1020
I27
tp3959
F75.266974702002258
s(I130
I41
tp3960
F73.680133703587884
s(I41
I463
tp3961
F46.733382880056439
s(I1182
I41
tp3962
F33.346307281260934
s(I137
I41
tp3963
F70.816331064103295
s(I1077
I41
tp3964
F89.350368766743586
s(I1041
I403
tp3965
F85.212199064796479
s(I237
I541
tp3966
F99.836285897335614
s(I1216
I41
tp3967
F37.718061207154683
s(I42
I541
tp3968
F59.735963211172326
s(I187
I41
tp3969
F30.726089047074012
s(I409
I476
tp3970
F91.230814484764849
s(I248
I41
tp3971
F59.1124468319708
s(I377
I541
tp3972
F52.476039652056429
s(I942
I1041
tp3973
F53.804519523656303
s(I1461
I41
tp3974
F75.604381504987145
s(I729
I1041
tp3975
F17.888184488883763
s(I126
I14
tp3976
F18.873157210901848
s(I1041
I174
tp3977
F62.281894790459127
s(I41
I278
tp3978
F18.633077488509741
s(I41
I233
tp3979
F79.694688125811126
s(I41
I700
tp3980
F59.240217968368079
s(I6
I3
tp3981
F23.612706223440416
s(I1041
I280
tp3982
F56.520868846262651
s(I541
I1442
tp3983
F87.958560547052144
s(I1002
I1
tp3984
F79.864433572615795
s(I195
I541
tp3985
F31.222330890015769
s(I16
I409
tp3986
F80.645262277032828
s(I1102
I41
tp3987
F11.887103949619959
s(I975
I1041
tp3988
F73.027025845130837
s(I57
I41
tp3989
F39.225944477685069
s(I41
I423
tp3990
F73.012614324674729
s(I41
I890
tp3991
F83.013958105113048
s(I636
I1041
tp3992
F77.137317282660263
s(I1041
I425
tp3993
F94.566670875117296
s(I541
I1256
tp3994
F55.324878786235978
s(I304
I41
tp3995
F65.584251112449266
s(I909
I1011
tp3996
F43.311264061414334
s(I41
I287
tp3997
F77.714521455727649
s(I909
I1137
tp3998
F91.488251378875248
s(I41
I210
tp3999
F86.779981253225415
s(I41
I907
tp4000
F41.763547179025785
s(I278
I541
tp4001
F85.828344538970441
s(I483
I541
tp4002
F23.559597583829806
s(I409
I158
tp4003
F10.070112929033892
s(I20
I535
tp4004
F1.1352215684381273
s(I1419
I409
tp4005
F4.1025815422978678
s(I369
I41
tp4006
F29.454145034167134
s(I190
I41
tp4007
F98.662738949124545
s(I541
I1290
tp4008
F45.82058402077417
s(I214
I837
tp4009
F34.953909350028432
s(I1337
I493
tp4010
F27.135749411430922
s(I1071
I41
tp4011
F97.53100248363441
s(I41
I821
tp4012
F11.586776420073397
s(I224
I41
tp4013
F20.370665884986828
s(I541
I1467
tp4014
F20.695339286606472
s(I409
I905
tp4015
F32.990080524218456
s(I174
I541
tp4016
F71.406855773190173
s(I173
I541
tp4017
F11.533558597745252
s.