(dp1
(I7
I3
tp2
F24.365750772895446
s(I41
I67
tp3
F18.180747209587299
s(I20
I25
tp4
F25.006890750845734
s(I255
I41
tp5
F84.269535927983668
s(I253
I41
tp6
F99.883078230377848
s(I58
I41
tp7
F75.066518412511456
s(I192
I241
tp8
F5.785555595787228
s(I141
I264
tp9
F80.697871558681072
s(I20
I136
tp10
F52.483437819718716
s(I64
I41
tp11
F84.566556669737807
s(I26
I120
tp12
F58.860447904071414
s(I95
I41
tp13
F48.744831949281263
s(I93
I41
tp14
F88.290365394029308
s(I221
I20
tp15
F90.195092839264419
s(I71
I141
tp16
F71.945162493381062
s(I257
I41
tp17
F79.861150133441271
s(I220
I37
tp18
F39.775235020540578
s(I11
I103
tp19
F46.735385121214826
s(I186
I241
tp20
F29.560707591108716
s(I212
I3
tp21
F62.574653215721298
s(I78
I141
tp22
F22.19879342203782
s(I20
I32
tp23
F78.966180094318716
s(I238
I20
tp24
F19.892845480447676
s(I120
I224
tp25
F10.540722260479185
s(I162
I241
tp26
F14.860508359279889
s(I109
I203
tp27
F91.814051426266232
s(I203
I10
tp28
F96.886719622851942
s(I283
I41
tp29
F22.474322051454688
s(I41
I169
tp30
F28.89622812265883
s(I141
I283
tp31
F73.073800269254747
s(I72
I41
tp32
F56.534648674540023
s(I86
I41
tp33
F8.3953317261124205
s(I15
I103
tp34
F39.794483466868577
s(I167
I241
tp35
F0.74633931023286859
s(I58
I141
tp36
F75.115254307717322
s(I141
I245
tp37
F71.014202432238875
s(I71
I41
tp38
F40.179889687094295
s(I275
I41
tp39
F49.995548839654468
s(I222
I20
tp40
F84.394618123460418
s(I182
I241
tp41
F57.309353433229823
s(I5
I103
tp42
F7.6067649482524535
s(I3
I11
tp43
F82.186983073048808
s(I168
I241
tp44
F15.193782984707171
s(I90
I141
tp45
F77.921387818124842
s(I3
I17
tp46
F91.986289042024623
s(I41
I147
tp47
F39.918939676336009
s(I120
I231
tp48
F70.783094839406061
s(I191
I241
tp49
F60.680284721594127
s(I134
I220
tp50
F42.367576069450266
s(I41
I146
tp51
F6.2361807548278918
s(I20
I132
tp52
F10.707828000284636
s(I115
I203
tp53
F38.531049009951488
s(I72
I141
tp54
F35.652806498369294
s(I48
I41
tp55
F66.855742722344587
s(I3
I106
tp56
F48.375726918528827
s(I196
I241
tp57
F82.274147857802689
s(I131
I220
tp58
F62.225160567234298
s(I3
I112
tp59
F48.960466319648418
s(I77
I41
tp60
F78.816490866102114
s(I30
I120
tp61
F25.310752365059841
s(I45
I141
tp62
F84.352436045616102
s(I241
I69
tp63
F69.764099556439888
s(I41
I96
tp64
F64.363547362044102
s(I185
I241
tp65
F72.874388562566509
s(I224
I20
tp66
F21.974960867044256
s(I104
I203
tp67
F35.446153447972463
s(I297
I41
tp68
F29.328217460122531
s(I68
I141
tp69
F81.972338389549492
s(I120
I238
tp70
F81.104856601979279
s(I20
I28
tp71
F17.775254483599589
s(I197
I241
tp72
F35.2458614239223
s(I204
I3
tp73
F16.92358990396604
s(I141
I269
tp74
F13.49417560612779
s(I20
I131
tp75
F23.655841063221239
s(I41
I189
tp76
F90.314683446753492
s(I298
I41
tp77
F17.795506622666991
s(I83
I141
tp78
F4.9744858618982812
s(I166
I241
tp79
F93.143086675416484
s(I48
I141
tp80
F63.179839571228733
s(I41
I71
tp81
F44.980621430121147
s(I142
I241
tp82
F31.489262013741836
s(I27
I20
tp83
F57.722838959412982
s(I17
I103
tp84
F32.987693539300963
s(I7
I103
tp85
F85.810875096957488
s(I155
I241
tp86
F74.266380424209615
s(I36
I120
tp87
F55.901610144658029
s(I288
I41
tp88
F57.940594583706108
s(I20
I27
tp89
F35.515665390813645
s(I79
I141
tp90
F94.543816331455687
s(I273
I41
tp91
F52.554987613165338
s(I170
I241
tp92
F96.513362027067245
s(I44
I141
tp93
F44.193125116769124
s(I41
I156
tp94
F15.726882653729724
s(I23
I20
tp95
F82.263630449130943
s(I20
I138
tp96
F82.983252723935692
s(I194
I241
tp97
F62.676400776748928
s(I199
I241
tp98
F84.558656330375541
s(I41
I72
tp99
F54.312151754836854
s(I31
I120
tp100
F89.293978968854077
s(I129
I220
tp101
F4.1246379643957169
s(I117
I203
tp102
F19.852857119101252
s(I118
I203
tp103
F0.37993695105388303
s(I103
I212
tp104
F65.798530925108906
s(I274
I41
tp105
F14.211181244513682
s(I184
I241
tp106
F94.984146882066483
s(I20
I34
tp107
F63.583837983316293
s(I17
I3
tp108
F45.951354948291453
s(I120
I226
tp109
F70.196075969751732
s(I202
I1
tp110
F29.402534661617374
s(I79
I41
tp111
F93.583697038726157
s(I203
I12
tp112
F20.25803011833306
s(I295
I41
tp113
F51.576834588385736
s(I41
I177
tp114
F35.4421202618718
s(I23
I120
tp115
F17.640844070369553
s(I62
I141
tp116
F93.923598388718887
s(I41
I68
tp117
F59.372078535290441
s(I3
I13
tp118
F49.538537261643675
s(I96
I141
tp119
F40.534684154659182
s(I141
I268
tp120
F91.190273099772895
s(I37
I120
tp121
F64.031561399501612
s(I246
I41
tp122
F3.0854211790919406
s(I235
I20
tp123
F94.249794172870864
s(I154
I241
tp124
F1.2866588990448236
s(I251
I41
tp125
F34.923289217784479
s(I94
I141
tp126
F70.639424296256763
s(I120
I233
tp127
F77.188397033468902
s(I20
I23
tp128
F77.744761809462602
s(I18
I3
tp129
F80.372094216015469
s(I183
I241
tp130
F67.077917524901437
s(I42
I141
tp131
F61.531435116923774
s(I55
I41
tp132
F39.956683877766018
s(I20
I125
tp133
F34.450104568564896
s(I85
I41
tp134
F94.754463218721853
s(I24
I120
tp135
F86.72753925869246
s(I20
I134
tp136
F50.2242289563779
s(I92
I141
tp137
F79.620028546290484
s(I120
I237
tp138
F36.457109575442324
s(I198
I241
tp139
F76.276085512245956
s(I91
I41
tp140
F1.0595444832763756
s(I231
I20
tp141
F62.48845331543167
s(I220
I31
tp142
F52.3022919942428
s(I3
I108
tp143
F43.909570956504083
s(I38
I20
tp144
F22.700659093865305
s(I3
I114
tp145
F86.239724225733028
s(I264
I41
tp146
F37.838653956699908
s(I103
I209
tp147
F13.793316489593032
s(I156
I241
tp148
F48.461793629403502
s(I258
I41
tp149
F18.019881530551508
s(I254
I41
tp150
F30.03341781865414
s(I252
I41
tp151
F4.5533935825505907
s(I20
I30
tp152
F84.976982055018453
s(I56
I141
tp153
F23.108894212759591
s(I19
I3
tp154
F93.847718308528712
s(I241
I46
tp155
F96.858130657774055
s(I286
I41
tp156
F43.360422724536939
s(I33
I20
tp157
F1.5749847800864636
s(I141
I267
tp158
F92.334787608156518
s(I203
I16
tp159
F31.331700431290344
s(I63
I41
tp160
F62.806499684150694
s(I61
I41
tp161
F85.919849565763926
s(I94
I41
tp162
F28.096232799859997
s(I9
I3
tp163
F77.740890050256681
s(I92
I41
tp164
F92.999796682295496
s(I99
I41
tp165
F16.106584315262516
s(I97
I41
tp166
F78.739393360462984
s(I41
I69
tp167
F15.972612087916715
s(I281
I41
tp168
F2.1458624417067473
s(I52
I141
tp169
F70.291106934228793
s(I157
I241
tp170
F45.664766872352047
s(I103
I206
tp171
F29.878004788017741
s(I29
I20
tp172
F2.8206655564682048
s(I291
I41
tp173
F81.050249248119883
s(I20
I37
tp174
F92.760201435252895
s(I289
I41
tp175
F45.629963975207446
s(I67
I141
tp176
F43.885673065982232
s(I25
I120
tp177
F54.686705570329309
s(I203
I9
tp178
F11.888224829342796
s(I227
I20
tp179
F75.200924280752176
s(I34
I20
tp180
F19.77149542099934
s(I158
I241
tp181
F12.256658365961016
s(I41
I164
tp182
F27.016333554812711
s(I10
I3
tp183
F41.5779634606778
s(I138
I220
tp184
F22.675692797755787
s(I70
I41
tp185
F7.3902678533938726
s(I171
I241
tp186
F80.946053337609399
s(I41
I78
tp187
F20.414300114100158
s(I98
I41
tp188
F27.075898021178091
s(I97
I141
tp189
F11.78650419725119
s(I75
I41
tp190
F93.198859439811002
s(I282
I41
tp191
F23.67246988089553
s(I259
I41
tp192
F22.055221748338571
s(I220
I33
tp193
F86.242217931716979
s(I61
I141
tp194
F4.9019950752629438
s(I3
I6
tp195
F70.017923111063297
s(I223
I20
tp196
F77.412762425140812
s(I172
I241
tp197
F44.395685254683038
s(I30
I20
tp198
F5.8624467061155645
s(I120
I228
tp199
F20.639439108168723
s(I93
I141
tp200
F39.405516928953197
s(I203
I14
tp201
F62.446127005284794
s(I270
I41
tp202
F58.554688991762951
s(I146
I241
tp203
F57.500275841040391
s(I41
I47
tp204
F16.611718941318099
s(I11
I3
tp205
F74.015016056355847
s(I41
I183
tp206
F37.997783619384585
s(I25
I20
tp207
F45.031652433060628
s(I143
I241
tp208
F51.865593197200788
s(I76
I41
tp209
F0.15327427868099264
s(I41
I89
tp210
F38.745480612025219
s(I140
I220
tp211
F93.402202448064713
s(I103
I218
tp212
F82.611181514921469
s(I241
I64
tp213
F23.931174790547004
s(I265
I41
tp214
F2.0155223476905348
s(I279
I41
tp215
F47.471048469362628
s(I18
I103
tp216
F7.2567252547309895
s(I241
I90
tp217
F81.072942390749375
s(I120
I235
tp218
F68.559265024243743
s(I145
I241
tp219
F10.742275406954549
s(I203
I7
tp220
F88.74374213260829
s(I21
I20
tp221
F8.7955577754119005
s(I32
I20
tp222
F50.818545647775828
s(I20
I127
tp223
F88.339706479343235
s(I141
I272
tp224
F2.6144342363220163
s(I20
I128
tp225
F74.394338332259778
s(I216
I3
tp226
F23.597499461901727
s(I80
I141
tp227
F53.584387866506674
s(I12
I3
tp228
F21.069009896427705
s(I56
I41
tp229
F37.512002480129865
s(I119
I203
tp230
F54.508294693630731
s(I113
I203
tp231
F36.451419761241468
s(I3
I116
tp232
F20.373965909580662
s(I103
I211
tp233
F30.455276777364205
s(I28
I20
tp234
F57.549906216116888
s(I116
I203
tp235
F56.041649153819904
s(I266
I41
tp236
F67.989919291417195
s(I175
I241
tp237
F56.211519138003197
s(I241
I83
tp238
F93.006049437835941
s(I210
I3
tp239
F61.922136157484445
s(I20
I24
tp240
F99.493588827562462
s(I272
I41
tp241
F5.0389227369633804
s(I220
I25
tp242
F29.637358253755952
s(I190
I241
tp243
F32.593070000806357
s(I3
I110
tp244
F28.8069795988099
s(I108
I203
tp245
F42.065059445248934
s(I203
I18
tp246
F58.806614342111452
s(I127
I220
tp247
F63.925397609960321
s(I124
I220
tp248
F7.744890378823321
s(I159
I241
tp249
F59.976299352700465
s(I35
I120
tp250
F19.341995792031796
s(I220
I36
tp251
F99.533354815947234
s(I233
I20
tp252
F78.59039779755274
s(I213
I3
tp253
F19.519027193554638
s(I141
I296
tp254
F77.083407899527074
s(I47
I41
tp255
F13.302622743299308
s(I78
I41
tp256
F15.935948475426864
s(I120
I223
tp257
F81.970667693287851
s(I144
I241
tp258
F96.85100422100065
s(I294
I41
tp259
F61.589378850339941
s(I83
I41
tp260
F19.695187958197145
s(I203
I11
tp261
F10.424102075317098
s(I173
I241
tp262
F55.125682989127746
s(I229
I20
tp263
F30.25544859420647
s(I240
I20
tp264
F93.490788179613361
s(I24
I20
tp265
F52.253154286132627
s(I141
I246
tp266
F76.701300363245792
s(I41
I51
tp267
F66.5025328265951
s(I54
I141
tp268
F71.707222136223663
s(I245
I41
tp269
F17.00914017503009
s(I208
I3
tp270
F98.143049515489594
s(I220
I35
tp271
F23.222395952109299
s(I3
I8
tp272
F61.166925728758528
s(I209
I3
tp273
F40.378917905726787
s(I4
I3
tp274
F35.262850531385382
s(I49
I141
tp275
F52.864619253272657
s(I214
I3
tp276
F77.931838464500885
s(I141
I289
tp277
F72.367806426337694
s(I174
I241
tp278
F90.911035495766228
s(I236
I20
tp279
F25.34948427872974
s(I120
I230
tp280
F39.580970837822171
s(I54
I41
tp281
F87.250535615396245
s(I187
I241
tp282
F9.3377725683479245
s(I84
I41
tp283
F82.301304768620071
s(I260
I41
tp284
F61.361071572097238
s(I81
I141
tp285
F54.666730278845357
s(I59
I41
tp286
F15.234918617930981
s(I141
I277
tp287
F35.164185450371058
s(I69
I41
tp288
F25.933017672919178
s(I125
I220
tp289
F1.8632222030337209
s(I22
I120
tp290
F23.847814764124344
s(I241
I78
tp291
F51.618410427738958
s(I220
I28
tp292
F24.160719160023326
s(I3
I107
tp293
F5.6799141981277446
s(I3
I113
tp294
F5.4794920025624467
s(I16
I103
tp295
F42.339820273917006
s(I39
I20
tp296
F53.850578009577468
s(I77
I141
tp297
F72.303644041857922
s(I262
I41
tp298
F11.799181172855288
s(I215
I3
tp299
F30.501415190069292
s(I88
I141
tp300
F57.612551622568262
s(I136
I220
tp301
F31.905615573932934
s(I292
I41
tp302
F41.417595270465426
s(I41
I45
tp303
F96.203594165625901
s(I205
I3
tp304
F84.460449309841223
s(I20
I130
tp305
F68.698750467758202
s(I62
I41
tp306
F94.445625467949867
s(I60
I41
tp307
F79.581841254995993
s(I98
I141
tp308
F13.27716205057018
s(I59
I141
tp309
F60.608445798148061
s(I147
I241
tp310
F3.1708703436551855
s(I41
I190
tp311
F11.096746063230434
s(I220
I27
tp312
F41.942812082127091
s(I96
I41
tp313
F14.211037082808842
s(I45
I41
tp314
F70.578965848631356
s(I148
I241
tp315
F82.650112344544311
s(I28
I120
tp316
F19.57156029023762
s(I280
I41
tp317
F91.28238656459736
s(I41
I64
tp318
F79.838554501714853
s(I132
I220
tp319
F30.878856746859505
s(I81
I41
tp320
F33.788632474391875
s(I3
I118
tp321
F71.88649282569196
s(I10
I103
tp322
F57.131036182292036
s(I161
I241
tp323
F75.34398674967332
s(I2
I1
tp324
F0.74546889781306191
s(I232
I20
tp325
F57.263566389697317
s(I55
I141
tp326
F13.308241800709963
s(I20
I26
tp327
F48.597711241600962
s(I220
I29
tp328
F32.881160940840267
s(I20
I137
tp329
F46.229542958520099
s(I242
I41
tp330
F54.656159621613952
s(I206
I3
tp331
F75.201169072596613
s(I41
I56
tp332
F22.161946397579147
s(I228
I20
tp333
F42.167514336455902
s(I296
I41
tp334
F65.267948240517072
s(I41
I167
tp335
F42.67430113263331
s(I35
I20
tp336
F21.230209612796848
s(I141
I251
tp337
F50.529701230393023
s(I82
I41
tp338
F50.06758494907573
s(I256
I41
tp339
F8.4080902867354261
s(I34
I120
tp340
F81.573283688700187
s(I41
I83
tp341
F1.4390518748323311
s(I220
I38
tp342
F67.512116675447771
s(I287
I41
tp343
F16.932411734207488
s(I239
I20
tp344
F93.9642809373684
s(I285
I41
tp345
F39.2897660776488
s(I20
I33
tp346
F31.58942895184742
s(I31
I20
tp347
F16.915734834442553
s(I276
I41
tp348
F0.26891647116644712
s(I195
I241
tp349
F41.572713616297541
s(I141
I256
tp350
F77.56554515662863
s(I203
I13
tp351
F34.070977128227945
s(I84
I141
tp352
F5.0522240251549722
s(I207
I3
tp353
F60.251273436973051
s(I41
I168
tp354
F62.168763812175868
s(I122
I220
tp355
F70.967720312414812
s(I57
I141
tp356
F32.358157965791449
s(I29
I120
tp357
F28.30249200039162
s(I41
I178
tp358
F46.751575683692728
s(I114
I203
tp359
F95.213259438069784
s(I243
I41
tp360
F99.884150005790957
s(I26
I20
tp361
F15.988137734274888
s(I3
I10
tp362
F79.92547008347303
s(I103
I217
tp363
F85.516642007804805
s(I160
I241
tp364
F31.536599614329809
s(I89
I141
tp365
F11.635775502225986
s(I278
I41
tp366
F71.256525877744281
s(I241
I67
tp367
F25.878143090153227
s(I3
I16
tp368
F35.53829121903761
s(I53
I141
tp369
F47.624469355921562
s(I263
I41
tp370
F71.419510960208626
s(I189
I241
tp371
F56.537521161657708
s(I120
I232
tp372
F63.776132542675022
s(I261
I41
tp373
F4.753222838536864
s(I165
I241
tp374
F49.149204009662398
s(I299
I41
tp375
F91.722132055251251
s(I20
I124
tp376
F53.096963416895747
s(I41
I145
tp377
F67.619215764642775
s(I20
I133
tp378
F47.927534625355307
s(I85
I141
tp379
F19.683775452115469
s(I21
I120
tp380
F30.867620327572542
s(I220
I30
tp381
F58.912733004868812
s(I3
I109
tp382
F83.957996556583851
s(I244
I41
tp383
F62.608135010280463
s(I42
I41
tp384
F28.116434873505401
s(I41
I196
tp385
F87.783316201666423
s(I103
I214
tp386
F43.241745161537807
s(I103
I216
tp387
F48.712371111422129
s(I249
I41
tp388
F32.973119618837089
s(I241
I68
tp389
F47.683983683857726
s(I110
I203
tp390
F53.898230643408006
s(I65
I141
tp391
F39.108786218051861
s(I179
I241
tp392
F51.126801214474519
s(I20
I29
tp393
F49.519787395214806
s(I53
I41
tp394
F66.314605185798015
s(I38
I120
tp395
F85.910093307782589
s(I269
I41
tp396
F34.398451343991887
s(I89
I41
tp397
F71.645391000054275
s(I20
I123
tp398
F9.4708218382650529
s(I241
I47
tp399
F56.721823619259538
s(I102
I201
tp400
F63.82161734159039
s(I203
I17
tp401
F12.375168030315276
s(I63
I141
tp402
F31.080211486916909
s(I8
I103
tp403
F97.222788701799757
s(I103
I207
tp404
F64.67462420893267
s(I86
I141
tp405
F97.518301413648288
s(I250
I41
tp406
F87.371668225983825
s(I120
I225
tp407
F35.929556794414843
s(I105
I203
tp408
F48.268194332052431
s(I234
I20
tp409
F88.431312630161997
s(I149
I241
tp410
F84.133186874540129
s(I46
I41
tp411
F85.171141571019078
s(I20
I36
tp412
F21.381298373678693
s(I123
I220
tp413
F70.416967869916959
s(I43
I141
tp414
F63.799669327558085
s(I188
I241
tp415
F56.305753583749805
s(I241
I71
tp416
F46.326162587373666
s(I164
I241
tp417
F42.958736254680019
s(I90
I41
tp418
F99.440945781548336
s(I66
I141
tp419
F77.224498173525021
s(I67
I41
tp420
F70.695151418802851
s(I65
I41
tp421
F9.8300142890942794
s(I177
I241
tp422
F86.529975081748063
s(I153
I241
tp423
F37.718920084389417
s(I37
I20
tp424
F70.376271279516843
s(I220
I32
tp425
F70.191403729249387
s(I3
I7
tp426
F76.601302732010609
s(I241
I72
tp427
F44.580437148284425
s(I20
I35
tp428
F61.124319738467435
s(I16
I3
tp429
F44.05017414490915
s(I39
I120
tp430
F58.181092281532642
s(I46
I141
tp431
F88.929125692566899
s(I120
I227
tp432
F95.318655764430019
s(I241
I51
tp433
F90.11871946466961
s(I68
I41
tp434
F38.311250631387558
s(I66
I41
tp435
F68.712800001862902
s(I43
I41
tp436
F9.9695457079220891
s(I139
I220
tp437
F90.137190402260401
s(I73
I41
tp438
F33.584996791529989
s(I87
I41
tp439
F40.573820538928686
s(I271
I41
tp440
F14.42612243539061
s(I41
I90
tp441
F75.839707505383018
s(I112
I203
tp442
F13.122321682252158
s(I40
I120
tp443
F98.8582946384644
s(I3
I12
tp444
F53.035119162399248
s(I76
I141
tp445
F7.4080747644887701
s(I3
I18
tp446
F80.730833404120034
s(I135
I220
tp447
F62.684107601443309
s(I120
I234
tp448
F1.3856572298034497
s(I121
I220
tp449
F62.652396408493871
s(I14
I103
tp450
F82.909748852436564
s(I20
I126
tp451
F14.106292070798943
s(I91
I141
tp452
F87.385886588904256
s(I163
I241
tp453
F39.483090551288889
s(I20
I135
tp454
F47.29679758183326
s(I217
I3
tp455
F23.345234899439049
s(I44
I41
tp456
F64.484755744809135
s(I74
I41
tp457
F95.730426614833419
s(I220
I24
tp458
F75.180017601922813
s(I176
I241
tp459
F78.335482373266331
s(I3
I111
tp460
F78.124362405300175
s(I4
I103
tp461
F68.654023876678096
s(I49
I41
tp462
F2.7149111185811758
s(I13
I3
tp463
F16.274551432967797
s(I80
I41
tp464
F31.443516635660462
s(I241
I96
tp465
F92.765411778516381
s(I32
I120
tp466
F2.0615463978337134
s(I3
I117
tp467
F43.707069512960828
s(I277
I41
tp468
F79.709486731443448
s(I103
I208
tp469
F57.892614936482154
s(I181
I241
tp470
F28.755943493012705
s(I87
I141
tp471
F43.596333080449135
s(I20
I31
tp472
F58.80347812529255
s(I69
I141
tp473
F32.658781889975344
s(I40
I20
tp474
F70.375697111409892
s(I241
I45
tp475
F98.752201769808579
s(I128
I220
tp476
F9.8215932953422129
s(I8
I3
tp477
F82.717203911729328
s(I230
I20
tp478
F71.387652169894054
s(I27
I120
tp479
F15.821824702297027
s(I220
I23
tp480
F87.234802949780061
s(I218
I3
tp481
F85.472451573206058
s(I137
I220
tp482
F62.93727551841414
s(I50
I41
tp483
F86.010748444261736
s(I51
I141
tp484
F22.281927013551762
s(I14
I3
tp485
F49.041083443875763
s(I36
I20
tp486
F47.048063483559964
s(I12
I103
tp487
F95.506794457986018
s(I151
I241
tp488
F7.9384670576172267
s(I74
I141
tp489
F51.034511386493151
s(I284
I41
tp490
F52.25288516798895
s(I13
I103
tp491
F38.877831184452575
s(I20
I38
tp492
F54.294261782240717
s(I133
I220
tp493
F47.648506708734985
s(I22
I20
tp494
F27.998784847793523
s(I47
I141
tp495
F74.948314328223631
s(I203
I8
tp496
F49.999042145817199
s(I237
I20
tp497
F23.62049493394186
s(I241
I56
tp498
F9.6335965780603772
s(I41
I171
tp499
F3.7451547453679068
s(I70
I141
tp500
F92.908745164028147
s(I2
I101
tp501
F54.942288810515969
s(I219
I3
tp502
F77.276933420302015
s(I41
I77
tp503
F9.9534478456173137
s(I33
I120
tp504
F79.711131271763463
s(I141
I247
tp505
F80.673211437441452
s(I6
I103
tp506
F73.994446241447605
s(I15
I3
tp507
F2.6005406477974335
s(I220
I34
tp508
F17.427495339724864
s(I3
I9
tp509
F44.429885555202333
s(I41
I151
tp510
F50.489978706590165
s(I180
I241
tp511
F18.021335135712512
s(I226
I20
tp512
F16.093568500712973
s(I5
I3
tp513
F21.17171104902269
s(I50
I141
tp514
F36.095603240880934
s(I51
I41
tp515
F80.433745515367434
s(I141
I290
tp516
F41.004230567193765
s(I290
I41
tp517
F37.294153428334411
s(I267
I41
tp518
F57.094995043772244
s(I120
I229
tp519
F51.298234222543591
s(I193
I241
tp520
F83.575081059574472
s(I169
I241
tp521
F54.947659083415623
s(I41
I172
tp522
F7.1988888657701144
s(I141
I278
tp523
F42.188300802192025
s(I82
I141
tp524
F77.117112822042827
s(I293
I41
tp525
F15.750189321899732
s(I19
I103
tp526
F11.914900125507454
s(I3
I14
tp527
F80.232868866822699
s(I9
I103
tp528
F64.389322468062034
s(I248
I41
tp529
F60.58225946945354
s(I103
I213
tp530
F34.057919204738155
s(I106
I203
tp531
F59.046077364470776
s(I107
I203
tp532
F52.994159690065302
s(I99
I141
tp533
F92.712835028699118
s(I150
I241
tp534
F27.822627030150361
s(I64
I141
tp535
F49.986018737343265
s(I247
I41
tp536
F80.990813623025318
s(I6
I3
tp537
F25.24836644383015
s(I52
I41
tp538
F32.717437377535155
s(I241
I89
tp539
F75.494558075274981
s(I120
I236
tp540
F24.013834309940641
s(I268
I41
tp541
F88.956417564170494
s(I57
I41
tp542
F59.415346794771537
s(I203
I6
tp543
F4.1066995005918816
s(I211
I3
tp544
F60.421229562460645
s(I88
I41
tp545
F43.599235097051803
s(I41
I46
tp546
F63.428410969743474
s(I73
I141
tp547
F8.3370330369681884
s(I141
I271
tp548
F39.9283780321812
s(I20
I129
tp549
F82.382883093935519
s(I178
I241
tp550
F67.445664600134307
s(I126
I220
tp551
F88.700858536404098
s(I95
I141
tp552
F0.21747685614040835
s(I241
I77
tp553
F97.935459565163058
s(I60
I141
tp554
F84.383309742694649
s(I220
I26
tp555
F60.067603928194345
s(I111
I203
tp556
F85.101240049791215
s(I103
I210
tp557
F48.404183476321684
s(I152
I241
tp558
F26.941295994661353
s(I130
I220
tp559
F6.2011122829923053
s(I225
I20
tp560
F67.01843962943353
s(I75
I141
tp561
F8.3128908731549878
s.