(dp1
S'R0'
p2
c__builtin__
set
p3
((lp4
(I408
I41
tp5
a(I7
I3
tp6
a(I337
I203
tp7
a(I20
I25
tp8
a(I41
I289
tp9
a(I41
I244
tp10
a(I37
I361
tp11
a(I124
I41
tp12
a(I379
I409
tp13
a(I58
I41
tp14
a(I267
I41
tp15
a(I437
I41
tp16
a(I403
I41
tp17
a(I153
I41
tp18
a(I224
I41
tp19
a(I409
I405
tp20
a(I41
I434
tp21
a(I110
I41
tp22
a(I473
I41
tp23
a(I337
I425
tp24
a(I478
I409
tp25
a(I159
I41
tp26
a(I41
I340
tp27
a(I95
I41
tp28
a(I93
I41
tp29
a(I271
I41
tp30
a(I41
I451
tp31
a(I479
I41
tp32
a(I419
I409
tp33
a(I41
I382
tp34
a(I337
I324
tp35
a(I370
I41
tp36
a(I253
I41
tp37
a(I41
I485
tp38
a(I337
I228
tp39
a(I5
I126
tp40
a(I41
I256
tp41
a(I409
I11
tp42
a(I468
I409
tp43
a(I3
I6
tp44
a(I41
I399
tp45
a(I303
I41
tp46
a(I20
I32
tp47
a(I41
I298
tp48
a(I41
I253
tp49
a(I41
I401
tp50
a(I210
I41
tp51
a(I384
I41
tp52
a(I430
I41
tp53
a(I468
I228
tp54
a(I41
I135
tp55
a(I409
I432
tp56
a(I406
I409
tp57
a(I41
I443
tp58
a(I415
I41
tp59
a(I413
I41
tp60
a(I409
I447
tp61
a(I41
I169
tp62
a(I474
I41
tp63
a(I313
I41
tp64
a(I345
I282
tp65
a(I41
I349
tp66
a(I86
I41
tp67
a(I451
I41
tp68
a(I449
I41
tp69
a(I41
I452
tp70
a(I157
I41
tp71
a(I270
I41
tp72
a(I41
I179
tp73
a(I409
I152
tp74
a(I73
I41
tp75
a(I41
I359
tp76
a(I101
I41
tp77
a(I275
I41
tp78
a(I41
I494
tp79
a(I107
I41
tp80
a(I3
I11
tp81
a(I64
I41
tp82
a(I41
I496
tp83
a(I154
I361
tp84
a(I126
I5
tp85
a(I41
I127
tp86
a(I3
I17
tp87
a(I41
I410
tp88
a(I59
I41
tp89
a(I14
I126
tp90
a(I41
I309
tp91
a(I41
I444
tp92
a(I392
I41
tp93
a(I406
I41
tp94
a(I195
I41
tp95
a(I30
I20
tp96
a(I41
I146
tp97
a(I361
I37
tp98
a(I41
I326
tp99
a(I468
I475
tp100
a(I391
I41
tp101
a(I337
I325
tp102
a(I345
I446
tp103
a(I434
I41
tp104
a(I450
I41
tp105
a(I48
I41
tp106
a(I41
I360
tp107
a(I427
I41
tp108
a(I457
I41
tp109
a(I41
I471
tp110
a(I488
I41
tp111
a(I337
I214
tp112
a(I409
I339
tp113
a(I41
I370
tp114
a(I77
I41
tp115
a(I108
I41
tp116
a(I312
I41
tp117
a(I261
I41
tp118
a(I41
I96
tp119
a(I113
I41
tp120
a(I41
I239
tp121
a(I460
I41
tp122
a(I41
I387
tp123
a(I297
I41
tp124
a(I311
I41
tp125
a(I341
I41
tp126
a(I20
I28
tp127
a(I372
I41
tp128
a(I41
I421
tp129
a(I347
I41
tp130
a(I377
I41
tp131
a(I409
I252
tp132
a(I152
I41
tp133
a(I38
I361
tp134
a(I345
I356
tp135
a(I41
I335
tp136
a(I361
I322
tp137
a(I143
I41
tp138
a(I105
I41
tp139
a(I181
I41
tp140
a(I41
I337
tp141
a(I468
I456
tp142
a(I397
I41
tp143
a(I41
I472
tp144
a(I209
I41
tp145
a(I217
I41
tp146
a(I458
I41
tp147
a(I41
I71
tp148
a(I41
I379
tp149
a(I27
I20
tp150
a(I433
I41
tp151
a(I41
I482
tp152
a(I177
I41
tp153
a(I409
I468
tp154
a(I496
I41
tp155
a(I41
I388
tp156
a(I288
I41
tp157
a(I493
I41
tp158
a(I409
I163
tp159
a(I20
I27
tp160
a(I41
I295
tp161
a(I41
I250
tp162
a(I67
I409
tp163
a(I41
I430
tp164
a(I273
I41
tp165
a(I319
I41
tp166
a(I317
I41
tp167
a(I214
I337
tp168
a(I348
I41
tp169
a(I390
I41
tp170
a(I378
I41
tp171
a(I23
I20
tp172
a(I293
I409
tp173
a(I41
I432
tp174
a(I355
I41
tp175
a(I353
I41
tp176
a(I128
I41
tp177
a(I174
I41
tp178
a(I41
I407
tp179
a(I41
I346
tp180
a(I468
I471
tp181
a(I126
I175
tp182
a(I53
I41
tp183
a(I140
I41
tp184
a(I41
I72
tp185
a(I41
I380
tp186
a(I235
I41
tp187
a(I41
I491
tp188
a(I193
I41
tp189
a(I340
I41
tp190
a(I239
I41
tp191
a(I463
I41
tp192
a(I41
I262
tp193
a(I409
I9
tp194
a(I411
I41
tp195
a(I486
I41
tp196
a(I395
I41
tp197
a(I20
I34
tp198
a(I41
I296
tp199
a(I41
I227
tp200
a(I166
I41
tp201
a(I337
I287
tp202
a(I17
I3
tp203
a(I274
I41
tp204
a(I79
I41
tp205
a(I41
I306
tp206
a(I41
I133
tp207
a(I41
I441
tp208
a(I295
I41
tp209
a(I326
I41
tp210
a(I115
I41
tp211
a(I356
I41
tp212
a(I354
I41
tp213
a(I41
I175
tp214
a(I233
I41
tp215
a(I331
I41
tp216
a(I468
I478
tp217
a(I41
I458
tp218
a(I150
I41
tp219
a(I409
I443
tp220
a(I11
I468
tp221
a(I337
I493
tp222
a(I220
I409
tp223
a(I41
I492
tp224
a(I135
I41
tp225
a(I165
I41
tp226
a(I443
I409
tp227
a(I196
I41
tp228
a(I50
I41
tp229
a(I194
I41
tp230
a(I41
I271
tp231
a(I171
I41
tp232
a(I201
I41
tp233
a(I215
I41
tp234
a(I126
I11
tp235
a(I480
I41
tp236
a(I235
I345
tp237
a(I409
I332
tp238
a(I41
I228
tp239
a(I399
I41
tp240
a(I475
I468
tp241
a(I41
I408
tp242
a(I251
I41
tp243
a(I89
I361
tp244
a(I56
I41
tp245
a(I337
I418
tp246
a(I20
I23
tp247
a(I435
I41
tp248
a(I41
I142
tp249
a(I65
I409
tp250
a(I41
I418
tp251
a(I409
I137
tp252
a(I85
I41
tp253
a(I116
I41
tp254
a(I41
I324
tp255
a(I41
I51
tp256
a(I332
I41
tp257
a(I121
I41
tp258
a(I409
I321
tp259
a(I41
I186
tp260
a(I41
I366
tp261
a(I368
I41
tp262
a(I41
I469
tp263
a(I38
I20
tp264
a(I41
I368
tp265
a(I476
I41
tp266
a(I205
I41
tp267
a(I141
I41
tp268
a(I424
I41
tp269
a(I172
I41
tp270
a(I202
I41
tp271
a(I41
I282
tp272
a(I41
I237
tp273
a(I41
I385
tp274
a(I208
I41
tp275
a(I236
I41
tp276
a(I254
I41
tp277
a(I252
I41
tp278
a(I20
I30
tp279
a(I41
I316
tp280
a(I41
I247
tp281
a(I409
I466
tp282
a(I41
I427
tp283
a(I436
I41
tp284
a(I19
I3
tp285
a(I237
I41
tp286
a(I231
I41
tp287
a(I366
I345
tp288
a(I33
I20
tp289
a(I472
I41
tp290
a(I41
I333
tp291
a(I409
I345
tp292
a(I63
I41
tp293
a(I350
I41
tp294
a(I61
I41
tp295
a(I94
I41
tp296
a(I9
I3
tp297
a(I92
I41
tp298
a(I122
I41
tp299
a(I41
I343
tp300
a(I99
I41
tp301
a(I41
I478
tp302
a(I97
I41
tp303
a(I41
I357
tp304
a(I41
I69
tp305
a(I41
I377
tp306
a(I41
I204
tp307
a(I9
I126
tp308
a(I134
I41
tp309
a(I41
I480
tp310
a(I41
I111
tp311
a(I160
I409
tp312
a(I29
I20
tp313
a(I41
I259
tp314
a(I41
I214
tp315
a(I41
I394
tp316
a(I178
I41
tp317
a(I20
I37
tp318
a(I41
I293
tp319
a(I41
I248
tp320
a(I62
I41
tp321
a(I41
I428
tp322
a(I289
I41
tp323
a(I230
I41
tp324
a(I229
I41
tp325
a(I389
I41
tp326
a(I41
I130
tp327
a(I414
I41
tp328
a(I41
I438
tp329
a(I442
I41
tp330
a(I425
I41
tp331
a(I419
I41
tp332
a(I405
I41
tp333
a(I448
I41
tp334
a(I41
I344
tp335
a(I361
I339
tp336
a(I10
I3
tp337
a(I41
I455
tp338
a(I72
I41
tp339
a(I70
I41
tp340
a(I337
I283
tp341
a(I41
I78
tp342
a(I98
I41
tp343
a(I409
I397
tp344
a(I41
I354
tp345
a(I477
I41
tp346
a(I3
I13
tp347
a(I41
I489
tp348
a(I282
I41
tp349
a(I259
I41
tp350
a(I409
I451
tp351
a(I257
I41
tp352
a(I41
I260
tp353
a(I41
I223
tp354
a(I337
I258
tp355
a(I334
I41
tp356
a(I41
I499
tp357
a(I126
I6
tp358
a(I339
I41
tp359
a(I41
I302
tp360
a(I41
I225
tp361
a(I41
I405
tp362
a(I110
I409
tp363
a(I495
I41
tp364
a(I217
I345
tp365
a(I96
I41
tp366
a(I41
I304
tp367
a(I41
I139
tp368
a(I250
I41
tp369
a(I337
I311
tp370
a(I255
I41
tp371
a(I41
I173
tp372
a(I468
I343
tp373
a(I179
I41
tp374
a(I420
I41
tp375
a(I41
I321
tp376
a(I418
I41
tp377
a(I41
I456
tp378
a(I32
I20
tp379
a(I421
I41
tp380
a(I11
I3
tp381
a(I456
I41
tp382
a(I470
I41
tp383
a(I41
I363
tp384
a(I468
I9
tp385
a(I25
I20
tp386
a(I349
I41
tp387
a(I71
I41
tp388
a(I76
I41
tp389
a(I41
I89
tp390
a(I455
I41
tp391
a(I485
I41
tp392
a(I409
I16
tp393
a(I260
I41
tp394
a(I258
I41
tp395
a(I489
I41
tp396
a(I112
I41
tp397
a(I126
I9
tp398
a(I491
I41
tp399
a(I265
I41
tp400
a(I279
I41
tp401
a(I41
I234
tp402
a(I310
I41
tp403
a(I339
I361
tp404
a(I41
I414
tp405
a(I315
I41
tp406
a(I41
I313
tp407
a(I41
I140
tp408
a(I376
I41
tp409
a(I325
I41
tp410
a(I21
I20
tp411
a(I9
I468
tp412
a(I41
I47
tp413
a(I361
I41
tp414
a(I409
I41
tp415
a(I41
I330
tp416
a(I149
I41
tp417
a(I333
I41
tp418
a(I211
I345
tp419
a(I180
I41
tp420
a(I41
I184
tp421
a(I155
I41
tp422
a(I396
I41
tp423
a(I185
I41
tp424
a(I41
I364
tp425
a(I216
I41
tp426
a(I41
I475
tp427
a(I432
I41
tp428
a(I175
I41
tp429
a(I41
I201
tp430
a(I432
I409
tp431
a(I245
I41
tp432
a(I28
I20
tp433
a(I18
I3
tp434
a(I41
I280
tp435
a(I492
I41
tp436
a(I266
I41
tp437
a(I41
I391
tp438
a(I203
I337
tp439
a(I497
I41
tp440
a(I20
I24
tp441
a(I41
I290
tp442
a(I41
I245
tp443
a(I318
I41
tp444
a(I316
I41
tp445
a(I41
I425
tp446
a(I12
I3
tp447
a(I41
I159
tp448
a(I352
I41
tp449
a(I301
I41
tp450
a(I41
I435
tp451
a(I362
I41
tp452
a(I337
I178
tp453
a(I337
I41
tp454
a(I383
I41
tp455
a(I381
I41
tp456
a(I158
I41
tp457
a(I409
I175
tp458
a(I156
I41
tp459
a(I41
I476
tp460
a(I163
I41
tp461
a(I161
I41
tp462
a(I325
I337
tp463
a(I41
I383
tp464
a(I192
I41
tp465
a(I238
I41
tp466
a(I55
I41
tp467
a(I41
I486
tp468
a(I138
I361
tp469
a(I41
I275
tp470
a(I223
I41
tp471
a(I221
I41
tp472
a(I41
I392
tp473
a(I41
I299
tp474
a(I218
I41
tp475
a(I498
I41
tp476
a(I47
I41
tp477
a(I41
I402
tp478
a(I356
I345
tp479
a(I78
I41
tp480
a(I41
I128
tp481
a(I83
I41
tp482
a(I186
I41
tp483
a(I478
I468
tp484
a(I145
I41
tp485
a(I409
I243
tp486
a(I345
I396
tp487
a(I281
I409
tp488
a(I409
I43
tp489
a(I41
I350
tp490
a(I338
I41
tp491
a(I41
I453
tp492
a(I24
I20
tp493
a(I41
I352
tp494
a(I91
I41
tp495
a(I164
I41
tp496
a(I162
I41
tp497
a(I41
I495
tp498
a(I139
I41
tp499
a(I6
I126
tp500
a(I41
I266
tp501
a(I409
I13
tp502
a(I214
I41
tp503
a(I41
I267
tp504
a(I41
I497
tp505
a(I4
I3
tp506
a(I126
I4
tp507
a(I398
I41
tp508
a(I464
I41
tp509
a(I41
I231
tp510
a(I409
I106
tp511
a(I41
I411
tp512
a(I345
I499
tp513
a(I358
I41
tp514
a(I41
I445
tp515
a(I54
I41
tp516
a(I100
I41
tp517
a(I84
I41
tp518
a(I461
I41
tp519
a(I409
I446
tp520
a(I409
I67
tp521
a(I41
I327
tp522
a(I120
I41
tp523
a(I69
I41
tp524
a(I499
I41
tp525
a(I41
I462
tp526
a(I75
I41
tp527
a(I475
I345
tp528
a(I187
I41
tp529
a(I41
I361
tp530
a(I468
I11
tp531
a(I119
I41
tp532
a(I8
I126
tp533
a(I41
I464
tp534
a(I409
I419
tp535
a(I337
I78
tp536
a(I39
I20
tp537
a(I176
I41
tp538
a(I41
I277
tp539
a(I262
I41
tp540
a(I41
I412
tp541
a(I37
I409
tp542
a(I126
I17
tp543
a(I337
I131
tp544
a(I404
I41
tp545
a(I175
I126
tp546
a(I41
I422
tp547
a(I282
I345
tp548
a(I440
I41
tp549
a(I41
I45
tp550
a(I114
I41
tp551
a(I241
I41
tp552
a(I41
I148
tp553
a(I409
I406
tp554
a(I41
I328
tp555
a(I226
I41
tp556
a(I60
I41
tp557
a(I34
I20
tp558
a(I439
I41
tp559
a(I272
I41
tp560
a(I41
I190
tp561
a(I290
I41
tp562
a(I409
I37
tp563
a(I41
I338
tp564
a(I45
I41
tp565
a(I475
I41
tp566
a(I441
I361
tp567
a(I106
I41
tp568
a(I280
I41
tp569
a(I41
I64
tp570
a(I409
I211
tp571
a(I81
I41
tp572
a(I41
I372
tp573
a(I127
I41
tp574
a(I125
I41
tp575
a(I337
I363
tp576
a(I444
I41
tp577
a(I2
I1
tp578
a(I41
I106
tp579
a(I309
I41
tp580
a(I345
I475
tp581
a(I41
I286
tp582
a(I452
I41
tp583
a(I345
I41
tp584
a(I409
I220
tp585
a(I401
I41
tp586
a(I20
I26
tp587
a(I41
I288
tp588
a(I41
I251
tp589
a(I41
I431
tp590
a(I41
I157
tp591
a(I345
I366
tp592
a(I41
I433
tp593
a(I242
I41
tp594
a(I416
I41
tp595
a(I41
I56
tp596
a(I478
I41
tp597
a(I296
I41
tp598
a(I41
I167
tp599
a(I412
I41
tp600
a(I41
I347
tp601
a(I200
I41
tp602
a(I447
I41
tp603
a(I41
I450
tp604
a(I445
I41
tp605
a(I197
I41
tp606
a(I35
I20
tp607
a(I106
I409
tp608
a(I343
I468
tp609
a(I41
I381
tp610
a(I483
I41
tp611
a(I481
I41
tp612
a(I82
I41
tp613
a(I256
I41
tp614
a(I302
I41
tp615
a(I41
I83
tp616
a(I345
I476
tp617
a(I103
I41
tp618
a(I41
I218
tp619
a(I11
I126
tp620
a(I287
I41
tp621
a(I285
I41
tp622
a(I20
I33
tp623
a(I41
I297
tp624
a(I346
I41
tp625
a(I152
I409
tp626
a(I337
I106
tp627
a(I41
I400
tp628
a(I361
I299
tp629
a(I321
I41
tp630
a(I367
I41
tp631
a(I13
I126
tp632
a(I276
I41
tp633
a(I142
I41
tp634
a(I41
I307
tp635
a(I409
I281
tp636
a(I41
I442
tp637
a(I147
I41
tp638
a(I357
I41
tp639
a(I41
I168
tp640
a(I447
I409
tp641
a(I41
I348
tp642
a(I41
I459
tp643
a(I410
I41
tp644
a(I402
I41
tp645
a(I207
I41
tp646
a(I385
I41
tp647
a(I41
I358
tp648
a(I4
I126
tp649
a(I423
I41
tp650
a(I294
I41
tp651
a(I41
I493
tp652
a(I454
I41
tp653
a(I243
I41
tp654
a(I484
I41
tp655
a(I26
I20
tp656
a(I482
I41
tp657
a(I5
I409
tp658
a(I397
I409
tp659
a(I41
I264
tp660
a(I41
I195
tp661
a(I264
I41
tp662
a(I278
I41
tp663
a(I409
I379
tp664
a(I3
I16
tp665
a(I409
I53
tp666
a(I345
I342
tp667
a(I41
I409
tp668
a(I263
I41
tp669
a(I152
I361
tp670
a(I293
I41
tp671
a(I324
I41
tp672
a(I41
I308
tp673
a(I396
I345
tp674
a(I299
I41
tp675
a(I329
I41
tp676
a(I343
I41
tp677
a(I360
I41
tp678
a(I374
I41
tp679
a(I148
I41
tp680
a(I409
I65
tp681
a(I41
I325
tp682
a(I379
I41
tp683
a(I337
I304
tp684
a(I41
I460
tp685
a(I184
I41
tp686
a(I337
I482
tp687
a(I41
I187
tp688
a(I41
I367
tp689
a(I14
I409
tp690
a(I41
I470
tp691
a(I169
I41
tp692
a(I183
I41
tp693
a(I213
I41
tp694
a(I244
I41
tp695
a(I41
I369
tp696
a(I41
I196
tp697
a(I219
I41
tp698
a(I335
I41
tp699
a(I249
I41
tp700
a(I126
I13
tp701
a(I41
I103
tp702
a(I41
I283
tp703
a(I41
I238
tp704
a(I409
I476
tp705
a(I41
I386
tp706
a(I42
I409
tp707
a(I287
I337
tp708
a(I20
I29
tp709
a(I41
I317
tp710
a(I41
I420
tp711
a(I68
I41
tp712
a(I300
I41
tp713
a(I89
I41
tp714
a(I330
I41
tp715
a(I139
I337
tp716
a(I305
I41
tp717
a(I106
I337
tp718
a(I336
I41
tp719
a(I382
I41
tp720
a(I380
I41
tp721
a(I246
I41
tp722
a(I41
I336
tp723
a(I323
I41
tp724
a(I41
I268
tp725
a(I41
I479
tp726
a(I160
I41
tp727
a(I365
I41
tp728
a(I170
I41
tp729
a(I41
I378
tp730
a(I41
I205
tp731
a(I409
I8
tp732
a(I41
I481
tp733
a(I191
I41
tp734
a(I189
I41
tp735
a(I222
I41
tp736
a(I220
I41
tp737
a(I41
I284
tp738
a(I41
I215
tp739
a(I31
I20
tp740
a(I38
I409
tp741
a(I41
I395
tp742
a(I225
I41
tp743
a(I409
I373
tp744
a(I337
I250
tp745
a(I46
I41
tp746
a(I20
I36
tp747
a(I41
I294
tp748
a(I41
I249
tp749
a(I269
I41
tp750
a(I41
I429
tp751
a(I90
I41
tp752
a(I41
I439
tp753
a(I67
I41
tp754
a(I65
I41
tp755
a(I306
I41
tp756
a(I111
I41
tp757
a(I41
I165
tp758
a(I476
I345
tp759
a(I41
I345
tp760
a(I41
I448
tp761
a(I441
I468
tp762
a(I409
I454
tp763
a(I41
I355
tp764
a(I409
I57
tp765
a(I37
I20
tp766
a(I243
I409
tp767
a(I146
I41
tp768
a(I3
I7
tp769
a(I41
I216
tp770
a(I41
I396
tp771
a(I167
I41
tp772
a(I375
I41
tp773
a(I198
I41
tp774
a(I123
I41
tp775
a(I228
I41
tp776
a(I371
I41
tp777
a(I20
I35
tp778
a(I41
I303
tp779
a(I41
I226
tp780
a(I16
I3
tp781
a(I203
I41
tp782
a(I227
I41
tp783
a(I281
I41
tp784
a(I387
I41
tp785
a(I41
I305
tp786
a(I431
I41
tp787
a(I41
I440
tp788
a(I332
I361
tp789
a(I467
I41
tp790
a(I41
I174
tp791
a(I66
I41
tp792
a(I41
I322
tp793
a(I337
I361
tp794
a(I43
I41
tp795
a(I487
I41
tp796
a(I41
I457
tp797
a(I87
I41
tp798
a(I104
I41
tp799
a(I118
I41
tp800
a(I41
I356
tp801
a(I468
I8
tp802
a(I409
I478
tp803
a(I41
I467
tp804
a(I409
I17
tp805
a(I41
I90
tp806
a(I307
I41
tp807
a(I3
I12
tp808
a(I41
I193
tp809
a(I409
I293
tp810
a(I126
I8
tp811
a(I426
I41
tp812
a(I41
I272
tp813
a(I41
I415
tp814
a(I409
I375
tp815
a(I204
I41
tp816
a(I41
I141
tp817
a(I388
I41
tp818
a(I41
I417
tp819
a(I386
I41
tp820
a(I240
I41
tp821
a(I345
I409
tp822
a(I122
I361
tp823
a(I407
I41
tp824
a(I417
I41
tp825
a(I438
I41
tp826
a(I41
I331
tp827
a(I468
I41
tp828
a(I443
I41
tp829
a(I44
I41
tp830
a(I74
I41
tp831
a(I41
I365
tp832
a(I49
I41
tp833
a(I41
I468
tp834
a(I13
I3
tp835
a(I80
I41
tp836
a(I428
I41
tp837
a(I126
I41
tp838
a(I41
I67
tp839
a(I468
I289
tp840
a(I3
I18
tp841
a(I277
I41
tp842
a(I308
I41
tp843
a(I109
I41
tp844
a(I283
I41
tp845
a(I476
I409
tp846
a(I41
I281
tp847
a(I41
I236
tp848
a(I344
I41
tp849
a(I409
I110
tp850
a(I41
I384
tp851
a(I451
I409
tp852
a(I462
I41
tp853
a(I20
I31
tp854
a(I41
I291
tp855
a(I409
I38
tp856
a(I40
I20
tp857
a(I41
I426
tp858
a(I373
I41
tp859
a(I62
I409
tp860
a(I394
I41
tp861
a(I471
I41
tp862
a(I8
I3
tp863
a(I11
I409
tp864
a(I321
I409
tp865
a(I400
I41
tp866
a(I446
I41
tp867
a(I41
I342
tp868
a(I468
I459
tp869
a(I41
I477
tp870
a(I41
I68
tp871
a(I232
I41
tp872
a(I14
I3
tp873
a(I429
I41
tp874
a(I41
I376
tp875
a(I36
I20
tp876
a(I3
I10
tp877
a(I490
I41
tp878
a(I41
I487
tp879
a(I441
I41
tp880
a(I102
I41
tp881
a(I459
I41
tp882
a(I465
I41
tp883
a(I41
I258
tp884
a(I409
I5
tp885
a(I286
I41
tp886
a(I331
I361
tp887
a(I17
I126
tp888
a(I41
I393
tp889
a(I314
I41
tp890
a(I409
I160
tp891
a(I291
I41
tp892
a(I20
I38
tp893
a(I41
I292
tp894
a(I41
I255
tp895
a(I320
I41
tp896
a(I366
I41
tp897
a(I41
I403
tp898
a(I375
I409
tp899
a(I22
I20
tp900
a(I41
I129
tp901
a(I351
I41
tp902
a(I41
I437
tp903
a(I154
I41
tp904
a(I456
I468
tp905
a(I131
I41
tp906
a(I129
I41
tp907
a(I41
I351
tp908
a(I409
I343
tp909
a(I206
I41
tp910
a(I359
I41
tp911
a(I41
I454
tp912
a(I41
I77
tp913
a(I422
I41
tp914
a(I211
I41
tp915
a(I41
I353
tp916
a(I15
I3
tp917
a(I41
I488
tp918
a(I187
I409
tp919
a(I337
I488
tp920
a(I393
I41
tp921
a(I41
I274
tp922
a(I3
I9
tp923
a(I409
I14
tp924
a(I466
I41
tp925
a(I41
I498
tp926
a(I5
I3
tp927
a(I42
I41
tp928
a(I41
I301
tp929
a(I168
I41
tp930
a(I51
I41
tp931
a(I292
I41
tp932
a(I284
I41
tp933
a(I337
I139
tp934
a(I41
I311
tp935
a(I328
I41
tp936
a(I342
I41
tp937
a(I136
I41
tp938
a(I41
I446
tp939
a(I298
I41
tp940
a(I190
I41
tp941
a(I327
I41
tp942
a(I126
I300
tp943
a(I41
I320
tp944
a(I132
I41
tp945
a(I161
I345
tp946
a(I130
I41
tp947
a(I41
I463
tp948
a(I363
I41
tp949
a(I137
I41
tp950
a(I151
I41
tp951
a(I41
I362
tp952
a(I182
I41
tp953
a(I212
I41
tp954
a(I41
I465
tp955
a(I409
I382
tp956
a(I8
I468
tp957
a(I494
I41
tp958
a(I3
I14
tp959
a(I41
I199
tp960
a(I248
I41
tp961
a(I3
I8
tp962
a(I163
I409
tp963
a(I322
I41
tp964
a(I126
I14
tp965
a(I41
I278
tp966
a(I41
I233
tp967
a(I247
I41
tp968
a(I6
I3
tp969
a(I41
I413
tp970
a(I211
I409
tp971
a(I52
I41
tp972
a(I337
I359
tp973
a(I16
I409
tp974
a(I41
I312
tp975
a(I41
I243
tp976
a(I268
I41
tp977
a(I57
I41
tp978
a(I41
I423
tp979
a(I88
I41
tp980
a(I373
I409
tp981
a(I41
I46
tp982
a(I453
I41
tp983
a(I304
I41
tp984
a(I133
I41
tp985
a(I87
I468
tp986
a(I117
I41
tp987
a(I41
I191
tp988
a(I409
I158
tp989
a(I364
I41
tp990
a(I138
I41
tp991
a(I471
I468
tp992
a(I342
I345
tp993
a(I369
I41
tp994
a(I469
I41
tp995
a(I144
I41
tp996
a(I41
I373
tp997
a(I41
I200
tp998
a(I115
I337
tp999
a(I188
I41
tp1000
a(I409
I300
tp1001
a(I409
I187
tp1002
a(I41
I287
tp1003
a(I41
I210
tp1004
a(I173
I41
tp1005
a(I199
I41
tp1006
a(I41
I390
tp1007
a(I234
I41
tp1008
atRp1009
sS'R1'
p1010
g3
((lp1011
(I41
I960
tp1012
a(I479
I541
tp1013
a(I184
I541
tp1014
a(I126
I675
tp1015
a(I41
I867
tp1016
a(I168
I541
tp1017
a(I258
I541
tp1018
a(I14
I909
tp1019
a(I394
I541
tp1020
a(I306
I541
tp1021
a(I21
I520
tp1022
a(I38
I909
tp1023
a(I332
I541
tp1024
a(I385
I541
tp1025
a(I41
I728
tp1026
a(I409
I968
tp1027
a(I41
I908
tp1028
a(I411
I541
tp1029
a(I249
I541
tp1030
a(I41
I635
tp1031
a(I472
I541
tp1032
a(I41
I738
tp1033
a(I465
I541
tp1034
a(I41
I918
tp1035
a(I284
I541
tp1036
a(I367
I541
tp1037
a(I264
I541
tp1038
a(I41
I817
tp1039
a(I118
I541
tp1040
a(I337
I861
tp1041
a(I41
I952
tp1042
a(I337
I783
tp1043
a(I41
I551
tp1044
a(I409
I947
tp1045
a(I41
I686
tp1046
a(I313
I541
tp1047
a(I122
I861
tp1048
a(I41
I969
tp1049
a(I468
I541
tp1050
a(I3
I511
tp1051
a(I4
I503
tp1052
a(I409
I897
tp1053
a(I222
I541
tp1054
a(I41
I868
tp1055
a(I41
I979
tp1056
a(I478
I909
tp1057
a(I413
I541
tp1058
a(I98
I541
tp1059
a(I63
I541
tp1060
a(I41
I782
tp1061
a(I41
I705
tp1062
a(I198
I541
tp1063
a(I262
I541
tp1064
a(I468
I789
tp1065
a(I90
I541
tp1066
a(I468
I509
tp1067
a(I208
I541
tp1068
a(I277
I541
tp1069
a(I41
I784
tp1070
a(I468
I508
tp1071
a(I41
I927
tp1072
a(I476
I909
tp1073
a(I225
I541
tp1074
a(I59
I541
tp1075
a(I325
I541
tp1076
a(I46
I541
tp1077
a(I109
I541
tp1078
a(I41
I826
tp1079
a(I130
I541
tp1080
a(I303
I541
tp1081
a(I56
I541
tp1082
a(I41
I929
tp1083
a(I9
I968
tp1084
a(I65
I909
tp1085
a(I178
I541
tp1086
a(I41
I843
tp1087
a(I104
I541
tp1088
a(I204
I541
tp1089
a(I257
I541
tp1090
a(I126
I505
tp1091
a(I334
I541
tp1092
a(I283
I541
tp1093
a(I41
I877
tp1094
a(I344
I541
tp1095
a(I41
I980
tp1096
a(I4
I626
tp1097
a(I468
I959
tp1098
a(I382
I541
tp1099
a(I41
I887
tp1100
a(I41
I714
tp1101
a(I337
I825
tp1102
a(I466
I541
tp1103
a(I136
I541
tp1104
a(I462
I541
tp1105
a(I81
I541
tp1106
a(I492
I541
tp1107
a(I272
I541
tp1108
a(I41
I793
tp1109
a(I41
I748
tp1110
a(I11
I909
tp1111
a(I41
I896
tp1112
a(I314
I541
tp1113
a(I41
I803
tp1114
a(I41
I758
tp1115
a(I117
I541
tp1116
a(I414
I541
tp1117
a(I41
I938
tp1118
a(I424
I541
tp1119
a(I17
I503
tp1120
a(I475
I541
tp1121
a(I375
I909
tp1122
a(I7
I503
tp1123
a(I41
I844
tp1124
a(I41
I571
tp1125
a(I41
I674
tp1126
a(I175
I626
tp1127
a(I41
I854
tp1128
a(I373
I909
tp1129
a(I41
I989
tp1130
a(I399
I541
tp1131
a(I409
I660
tp1132
a(I97
I541
tp1133
a(I41
I888
tp1134
a(I197
I541
tp1135
a(I41
I999
tp1136
a(I420
I541
tp1137
a(I223
I541
tp1138
a(I451
I909
tp1139
a(I3
I512
tp1140
a(I41
I725
tp1141
a(I160
I909
tp1142
a(I41
I905
tp1143
a(I28
I520
tp1144
a(I50
I541
tp1145
a(I40
I520
tp1146
a(I41
I804
tp1147
a(I41
I767
tp1148
a(I76
I541
tp1149
a(I129
I541
tp1150
a(I41
I915
tp1151
a(I20
I529
tp1152
a(I206
I541
tp1153
a(I155
I541
tp1154
a(I430
I541
tp1155
a(I216
I541
tp1156
a(I41
I641
tp1157
a(I177
I541
tp1158
a(I41
I572
tp1159
a(I203
I541
tp1160
a(I105
I541
tp1161
a(I41
I863
tp1162
a(I417
I541
tp1163
a(I3
I517
tp1164
a(I37
I520
tp1165
a(I41
I589
tp1166
a(I285
I541
tp1167
a(I41
I865
tp1168
a(I240
I541
tp1169
a(I186
I541
tp1170
a(I67
I541
tp1171
a(I286
I541
tp1172
a(I309
I541
tp1173
a(I337
I787
tp1174
a(I41
I734
tp1175
a(I234
I541
tp1176
a(I41
I633
tp1177
a(I41
I813
tp1178
a(I41
I736
tp1179
a(I167
I541
tp1180
a(I218
I541
tp1181
a(I20
I536
tp1182
a(I474
I541
tp1183
a(I439
I541
tp1184
a(I110
I909
tp1185
a(I217
I845
tp1186
a(I456
I968
tp1187
a(I41
I958
tp1188
a(I195
I541
tp1189
a(I369
I541
tp1190
a(I266
I541
tp1191
a(I487
I541
tp1192
a(I192
I541
tp1193
a(I69
I541
tp1194
a(I41
I684
tp1195
a(I292
I541
tp1196
a(I287
I837
tp1197
a(I41
I975
tp1198
a(I321
I909
tp1199
a(I409
I943
tp1200
a(I409
I954
tp1201
a(I393
I541
tp1202
a(I41
I977
tp1203
a(I470
I541
tp1204
a(I419
I541
tp1205
a(I409
I832
tp1206
a(I494
I541
tp1207
a(I443
I909
tp1208
a(I480
I541
tp1209
a(I41
I780
tp1210
a(I475
I845
tp1211
a(I39
I520
tp1212
a(I41
I790
tp1213
a(I41
I745
tp1214
a(I126
I541
tp1215
a(I75
I541
tp1216
a(I41
I925
tp1217
a(I24
I520
tp1218
a(I200
I541
tp1219
a(I41
I824
tp1220
a(I41
I755
tp1221
a(I41
I935
tp1222
a(I20
I525
tp1223
a(I308
I541
tp1224
a(I337
I678
tp1225
a(I253
I541
tp1226
a(I209
I541
tp1227
a(I337
I541
tp1228
a(I58
I541
tp1229
a(I409
I793
tp1230
a(I84
I541
tp1231
a(I126
I511
tp1232
a(I45
I541
tp1233
a(I27
I520
tp1234
a(I41
I851
tp1235
a(I41
I986
tp1236
a(I185
I541
tp1237
a(I339
I541
tp1238
a(I41
I577
tp1239
a(I211
I541
tp1240
a(I41
I885
tp1241
a(I468
I511
tp1242
a(I203
I837
tp1243
a(I11
I503
tp1244
a(I333
I541
tp1245
a(I54
I541
tp1246
a(I41
I799
tp1247
a(I409
I514
tp1248
a(I138
I541
tp1249
a(I359
I541
tp1250
a(I41
I902
tp1251
a(I468
I909
tp1252
a(I473
I541
tp1253
a(I41
I801
tp1254
a(I41
I756
tp1255
a(I499
I541
tp1256
a(I409
I966
tp1257
a(I20
I532
tp1258
a(I112
I541
tp1259
a(I478
I968
tp1260
a(I409
I711
tp1261
a(I265
I541
tp1262
a(I77
I541
tp1263
a(I322
I541
tp1264
a(I366
I845
tp1265
a(I342
I541
tp1266
a(I291
I541
tp1267
a(I41
I946
tp1268
a(I426
I541
tp1269
a(I391
I541
tp1270
a(I352
I541
tp1271
a(I41
I569
tp1272
a(I317
I541
tp1273
a(I337
I859
tp1274
a(I299
I541
tp1275
a(I41
I852
tp1276
a(I409
I845
tp1277
a(I11
I968
tp1278
a(I34
I520
tp1279
a(I106
I909
tp1280
a(I41
I963
tp1281
a(I144
I541
tp1282
a(I469
I541
tp1283
a(I281
I909
tp1284
a(I41
I894
tp1285
a(I41
I997
tp1286
a(I384
I541
tp1287
a(I41
I768
tp1288
a(I41
I731
tp1289
a(I125
I541
tp1290
a(I422
I541
tp1291
a(I41
I911
tp1292
a(I49
I541
tp1293
a(I41
I630
tp1294
a(I9
I503
tp1295
a(I409
I843
tp1296
a(I409
I557
tp1297
a(I13
I626
tp1298
a(I41
I913
tp1299
a(I20
I531
tp1300
a(I289
I541
tp1301
a(I57
I541
tp1302
a(I41
I955
tp1303
a(I280
I541
tp1304
a(I157
I541
tp1305
a(I83
I541
tp1306
a(I41
I546
tp1307
a(I41
I861
tp1308
a(I345
I896
tp1309
a(I205
I541
tp1310
a(I41
I964
tp1311
a(I428
I541
tp1312
a(I3
I506
tp1313
a(I41
I691
tp1314
a(I243
I909
tp1315
a(I409
I951
tp1316
a(I345
I541
tp1317
a(I41
I771
tp1318
a(I38
I520
tp1319
a(I281
I541
tp1320
a(I371
I541
tp1321
a(I337
I606
tp1322
a(I441
I541
tp1323
a(I41
I777
tp1324
a(I409
I610
tp1325
a(I409
I800
tp1326
a(I79
I541
tp1327
a(I493
I541
tp1328
a(I214
I541
tp1329
a(I41
I639
tp1330
a(I41
I787
tp1331
a(I224
I541
tp1332
a(I453
I541
tp1333
a(I41
I922
tp1334
a(I20
I538
tp1335
a(I41
I821
tp1336
a(I41
I648
tp1337
a(I341
I541
tp1338
a(I41
I956
tp1339
a(I345
I999
tp1340
a(I425
I541
tp1341
a(I41
I747
tp1342
a(I407
I541
tp1343
a(I451
I541
tp1344
a(I409
I663
tp1345
a(I41
I838
tp1346
a(I133
I541
tp1347
a(I194
I541
tp1348
a(I126
I506
tp1349
a(I120
I541
tp1350
a(I438
I541
tp1351
a(I294
I541
tp1352
a(I220
I541
tp1353
a(I41
I872
tp1354
a(I304
I541
tp1355
a(I245
I541
tp1356
a(I337
I863
tp1357
a(I242
I541
tp1358
a(I468
I956
tp1359
a(I41
I606
tp1360
a(I8
I626
tp1361
a(I41
I882
tp1362
a(I363
I541
tp1363
a(I477
I541
tp1364
a(I421
I541
tp1365
a(I142
I541
tp1366
a(I325
I837
tp1367
a(I482
I541
tp1368
a(I447
I541
tp1369
a(I152
I541
tp1370
a(I41
I788
tp1371
a(I41
I751
tp1372
a(I42
I909
tp1373
a(I41
I899
tp1374
a(I274
I541
tp1375
a(I41
I830
tp1376
a(I41
I753
tp1377
a(I339
I861
tp1378
a(I300
I541
tp1379
a(I41
I933
tp1380
a(I20
I527
tp1381
a(I251
I541
tp1382
a(I361
I537
tp1383
a(I41
I556
tp1384
a(I459
I541
tp1385
a(I106
I837
tp1386
a(I41
I667
tp1387
a(I440
I541
tp1388
a(I41
I847
tp1389
a(I134
I541
tp1390
a(I471
I968
tp1391
a(I126
I509
tp1392
a(I427
I541
tp1393
a(I41
I701
tp1394
a(I351
I541
tp1395
a(I488
I541
tp1396
a(I41
I849
tp1397
a(I190
I541
tp1398
a(I106
I541
tp1399
a(I409
I879
tp1400
a(I41
I583
tp1401
a(I99
I541
tp1402
a(I41
I891
tp1403
a(I41
I718
tp1404
a(I161
I541
tp1405
a(I41
I994
tp1406
a(I410
I541
tp1407
a(I213
I541
tp1408
a(I436
I541
tp1409
a(I41
I797
tp1410
a(I239
I541
tp1411
a(I41
I900
tp1412
a(I345
I975
tp1413
a(I41
I627
tp1414
a(I41
I807
tp1415
a(I41
I762
tp1416
a(I66
I541
tp1417
a(I41
I942
tp1418
a(I20
I534
tp1419
a(I92
I541
tp1420
a(I496
I541
tp1421
a(I14
I626
tp1422
a(I361
I822
tp1423
a(I41
I668
tp1424
a(I356
I845
tp1425
a(I10
I503
tp1426
a(I41
I944
tp1427
a(I345
I866
tp1428
a(I193
I541
tp1429
a(I293
I541
tp1430
a(I219
I541
tp1431
a(I41
I858
tp1432
a(I354
I541
tp1433
a(I409
I675
tp1434
a(I337
I639
tp1435
a(I41
I892
tp1436
a(I212
I541
tp1437
a(I146
I541
tp1438
a(I72
I541
tp1439
a(I172
I541
tp1440
a(I481
I541
tp1441
a(I41
I774
tp1442
a(I346
I541
tp1443
a(I302
I541
tp1444
a(I41
I909
tp1445
a(I345
I976
tp1446
a(I311
I541
tp1447
a(I312
I541
tp1448
a(I41
I628
tp1449
a(I67
I909
tp1450
a(I273
I541
tp1451
a(I41
I808
tp1452
a(I41
I739
tp1453
a(I5
I909
tp1454
a(I342
I845
tp1455
a(I409
I839
tp1456
a(I434
I541
tp1457
a(I360
I541
tp1458
a(I395
I541
tp1459
a(I41
I953
tp1460
a(I372
I541
tp1461
a(I409
I752
tp1462
a(I166
I541
tp1463
a(I41
I687
tp1464
a(I282
I541
tp1465
a(I41
I835
tp1466
a(I85
I541
tp1467
a(I41
I970
tp1468
a(I3
I508
tp1469
a(I41
I869
tp1470
a(I330
I541
tp1471
a(I356
I541
tp1472
a(I89
I861
tp1473
a(I41
I931
tp1474
a(I15
I503
tp1475
a(I41
I783
tp1476
a(I176
I541
tp1477
a(I323
I541
tp1478
a(I215
I541
tp1479
a(I9
I626
tp1480
a(I65
I541
tp1481
a(I41
I920
tp1482
a(I288
I541
tp1483
a(I165
I541
tp1484
a(I91
I541
tp1485
a(I345
I842
tp1486
a(I41
I827
tp1487
a(I409
I606
tp1488
a(I154
I861
tp1489
a(I468
I728
tp1490
a(I41
I930
tp1491
a(I64
I541
tp1492
a(I337
I824
tp1493
a(I16
I503
tp1494
a(I409
I946
tp1495
a(I271
I541
tp1496
a(I6
I503
tp1497
a(I22
I520
tp1498
a(I41
I836
tp1499
a(I305
I541
tp1500
a(I44
I541
tp1501
a(I353
I541
tp1502
a(I432
I909
tp1503
a(I409
I567
tp1504
a(I126
I504
tp1505
a(I409
I508
tp1506
a(I379
I541
tp1507
a(I164
I541
tp1508
a(I247
I541
tp1509
a(I41
I878
tp1510
a(I61
I541
tp1511
a(I38
I861
tp1512
a(I41
I981
tp1513
a(I122
I541
tp1514
a(I87
I541
tp1515
a(I409
I652
tp1516
a(I171
I541
tp1517
a(I41
I880
tp1518
a(I41
I715
tp1519
a(I232
I541
tp1520
a(I331
I541
tp1521
a(I337
I750
tp1522
a(I318
I541
tp1523
a(I227
I541
tp1524
a(I41
I794
tp1525
a(I41
I749
tp1526
a(I126
I513
tp1527
a(I259
I541
tp1528
a(I31
I520
tp1529
a(I349
I541
tp1530
a(I29
I520
tp1531
a(I26
I520
tp1532
a(I433
I541
tp1533
a(I154
I541
tp1534
a(I375
I541
tp1535
a(I41
I828
tp1536
a(I41
I759
tp1537
a(I180
I541
tp1538
a(I41
I939
tp1539
a(I141
I541
tp1540
a(I202
I541
tp1541
a(I409
I743
tp1542
a(I41
I665
tp1543
a(I228
I541
tp1544
a(I41
I845
tp1545
a(I3
I518
tp1546
a(I41
I564
tp1547
a(I307
I541
tp1548
a(I442
I541
tp1549
a(I41
I675
tp1550
a(I41
I855
tp1551
a(I319
I541
tp1552
a(I429
I541
tp1553
a(I150
I541
tp1554
a(I355
I541
tp1555
a(I332
I861
tp1556
a(I490
I541
tp1557
a(I455
I541
tp1558
a(I160
I541
tp1559
a(I41
I716
tp1560
a(I260
I541
tp1561
a(I41
I992
tp1562
a(I6
I626
tp1563
a(I3
I513
tp1564
a(I41
I726
tp1565
a(I380
I541
tp1566
a(I145
I541
tp1567
a(I62
I909
tp1568
a(I159
I541
tp1569
a(I387
I541
tp1570
a(I41
I805
tp1571
a(I41
I760
tp1572
a(I236
I541
tp1573
a(I448
I541
tp1574
a(I41
I940
tp1575
a(I20
I528
tp1576
a(I486
I541
tp1577
a(I41
I642
tp1578
a(I464
I541
tp1579
a(I41
I950
tp1580
a(I94
I541
tp1581
a(I43
I541
tp1582
a(I62
I541
tp1583
a(I41
I856
tp1584
a(I41
I967
tp1585
a(I121
I541
tp1586
a(I418
I541
tp1587
a(I41
I590
tp1588
a(I221
I541
tp1589
a(I41
I866
tp1590
a(I409
I905
tp1591
a(I229
I541
tp1592
a(I52
I541
tp1593
a(I337
I728
tp1594
a(I41
I772
tp1595
a(I74
I541
tp1596
a(I100
I541
tp1597
a(I153
I541
tp1598
a(I279
I541
tp1599
a(I41
I737
tp1600
a(I179
I541
tp1601
a(I41
I917
tp1602
a(I201
I541
tp1603
a(I41
I816
tp1604
a(I409
I976
tp1605
a(I301
I541
tp1606
a(I41
I959
tp1607
a(I19
I503
tp1608
a(I362
I541
tp1609
a(I327
I541
tp1610
a(I361
I839
tp1611
a(I132
I541
tp1612
a(I409
I637
tp1613
a(I41
I833
tp1614
a(I70
I541
tp1615
a(I467
I541
tp1616
a(I396
I845
tp1617
a(I3
I516
tp1618
a(I41
I968
tp1619
a(I36
I520
tp1620
a(I80
I541
tp1621
a(I409
I505
tp1622
a(I3
I510
tp1623
a(I41
I695
tp1624
a(I489
I541
tp1625
a(I175
I541
tp1626
a(I310
I541
tp1627
a(I161
I845
tp1628
a(I41
I978
tp1629
a(I331
I861
tp1630
a(I320
I541
tp1631
a(I41
I781
tp1632
a(I41
I704
tp1633
a(I358
I541
tp1634
a(I41
I611
tp1635
a(I368
I541
tp1636
a(I437
I541
tp1637
a(I337
I993
tp1638
a(I463
I541
tp1639
a(I41
I926
tp1640
a(I199
I541
tp1641
a(I444
I541
tp1642
a(I41
I825
tp1643
a(I41
I928
tp1644
a(I20
I524
tp1645
a(I93
I541
tp1646
a(I390
I541
tp1647
a(I316
I541
tp1648
a(I119
I541
tp1649
a(I400
I541
tp1650
a(I82
I541
tp1651
a(I41
I842
tp1652
a(I345
I909
tp1653
a(I447
I909
tp1654
a(I364
I541
tp1655
a(I468
I978
tp1656
a(I41
I696
tp1657
a(I5
I503
tp1658
a(I250
I541
tp1659
a(I41
I876
tp1660
a(I443
I541
tp1661
a(I41
I987
tp1662
a(I51
I541
tp1663
a(I41
I578
tp1664
a(I41
I886
tp1665
a(I409
I537
tp1666
a(I73
I541
tp1667
a(I173
I541
tp1668
a(I409
I821
tp1669
a(I396
I541
tp1670
a(I41
I792
tp1671
a(I41
I723
tp1672
a(I41
I903
tp1673
a(I409
I658
tp1674
a(I8
I503
tp1675
a(I41
I802
tp1676
a(I41
I937
tp1677
a(I20
I523
tp1678
a(I361
I541
tp1679
a(I47
I541
tp1680
a(I337
I988
tp1681
a(I182
I541
tp1682
a(I131
I541
tp1683
a(I169
I541
tp1684
a(I95
I541
tp1685
a(I475
I968
tp1686
a(I41
I673
tp1687
a(I230
I541
tp1688
a(I41
I853
tp1689
a(I2
I501
tp1690
a(I87
I968
tp1691
a(I3
I514
tp1692
a(I41
I988
tp1693
a(I149
I541
tp1694
a(I335
I541
tp1695
a(I468
I971
tp1696
a(I41
I895
tp1697
a(I25
I520
tp1698
a(I41
I998
tp1699
a(I357
I541
tp1700
a(I78
I541
tp1701
a(I162
I541
tp1702
a(I383
I541
tp1703
a(I88
I541
tp1704
a(I409
I516
tp1705
a(I409
I781
tp1706
a(I188
I541
tp1707
a(I37
I909
tp1708
a(I409
I873
tp1709
a(I348
I541
tp1710
a(I210
I541
tp1711
a(I41
I811
tp1712
a(I41
I766
tp1713
a(I337
I925
tp1714
a(I41
I914
tp1715
a(I20
I530
tp1716
a(I138
I861
tp1717
a(I389
I541
tp1718
a(I366
I541
tp1719
a(I315
I541
tp1720
a(I18
I503
tp1721
a(I41
I640
tp1722
a(I415
I541
tp1723
a(I376
I541
tp1724
a(I41
I948
tp1725
a(I476
I541
tp1726
a(I432
I541
tp1727
a(I41
I547
tp1728
a(I158
I541
tp1729
a(I498
I541
tp1730
a(I41
I862
tp1731
a(I211
I845
tp1732
a(I268
I541
tp1733
a(I41
I965
tp1734
a(I235
I541
tp1735
a(I3
I507
tp1736
a(I398
I541
tp1737
a(I235
I845
tp1738
a(I41
I864
tp1739
a(I408
I541
tp1740
a(I163
I909
tp1741
a(I147
I541
tp1742
a(I446
I541
tp1743
a(I187
I909
tp1744
a(I41
I778
tp1745
a(I41
I733
tp1746
a(I456
I541
tp1747
a(I461
I541
tp1748
a(I123
I541
tp1749
a(I16
I909
tp1750
a(I41
I812
tp1751
a(I41
I743
tp1752
a(I41
I923
tp1753
a(I20
I537
tp1754
a(I102
I541
tp1755
a(I41
I822
tp1756
a(I181
I541
tp1757
a(I404
I541
tp1758
a(I41
I957
tp1759
a(I207
I541
tp1760
a(I282
I845
tp1761
a(I41
I659
tp1762
a(I37
I861
tp1763
a(I148
I541
tp1764
a(I409
I919
tp1765
a(I452
I541
tp1766
a(I409
I906
tp1767
a(I255
I541
tp1768
a(I126
I800
tp1769
a(I409
I511
tp1770
a(I60
I541
tp1771
a(I41
I693
tp1772
a(I337
I578
tp1773
a(I41
I873
tp1774
a(I409
I978
tp1775
a(I41
I976
tp1776
a(I8
I968
tp1777
a(I409
I517
tp1778
a(I108
I541
tp1779
a(I337
I631
tp1780
a(I41
I883
tp1781
a(I41
I710
tp1782
a(I261
I541
tp1783
a(I238
I541
tp1784
a(I187
I541
tp1785
a(I287
I541
tp1786
a(I248
I541
tp1787
a(I41
I789
tp1788
a(I41
I744
tp1789
a(I126
I514
tp1790
a(I30
I520
tp1791
a(I370
I541
tp1792
a(I409
I875
tp1793
a(I41
I831
tp1794
a(I140
I541
tp1795
a(I449
I541
tp1796
a(I41
I791
tp1797
a(I41
I934
tp1798
a(I20
I526
tp1799
a(I270
I541
tp1800
a(I329
I541
tp1801
a(I497
I541
tp1802
a(I41
I840
tp1803
a(I183
I541
tp1804
a(I337
I804
tp1805
a(I468
I843
tp1806
a(I41
I567
tp1807
a(I244
I541
tp1808
a(I126
I508
tp1809
a(I233
I541
tp1810
a(I328
I541
tp1811
a(I71
I541
tp1812
a(I41
I850
tp1813
a(I41
I985
tp1814
a(I445
I541
tp1815
a(I41
I884
tp1816
a(I409
I543
tp1817
a(I41
I995
tp1818
a(I343
I968
tp1819
a(I115
I837
tp1820
a(I276
I541
tp1821
a(I41
I603
tp1822
a(I41
I798
tp1823
a(I409
I513
tp1824
a(I126
I517
tp1825
a(I211
I909
tp1826
a(I41
I901
tp1827
a(I11
I626
tp1828
a(I337
I703
tp1829
a(I101
I541
tp1830
a(I324
I541
tp1831
a(I127
I541
tp1832
a(I41
I943
tp1833
a(I20
I533
tp1834
a(I435
I541
tp1835
a(I293
I909
tp1836
a(I379
I909
tp1837
a(I41
I669
tp1838
a(I41
I945
tp1839
a(I124
I541
tp1840
a(I41
I568
tp1841
a(I256
I541
tp1842
a(I340
I541
tp1843
a(I110
I541
tp1844
a(I41
I679
tp1845
a(I41
I859
tp1846
a(I350
I541
tp1847
a(I41
I962
tp1848
a(I48
I541
tp1849
a(I163
I541
tp1850
a(I290
I541
tp1851
a(I107
I541
tp1852
a(I41
I893
tp1853
a(I485
I541
tp1854
a(I41
I996
tp1855
a(I441
I968
tp1856
a(I321
I541
tp1857
a(I12
I503
tp1858
a(I14
I503
tp1859
a(I468
I975
tp1860
a(I41
I775
tp1861
a(I347
I541
tp1862
a(I231
I541
tp1863
a(I41
I910
tp1864
a(I419
I909
tp1865
a(I41
I629
tp1866
a(I345
I856
tp1867
a(I55
I541
tp1868
a(I41
I809
tp1869
a(I41
I764
tp1870
a(I139
I541
tp1871
a(I116
I541
tp1872
a(I41
I912
tp1873
a(I143
I541
tp1874
a(I103
I541
tp1875
a(I41
I646
tp1876
a(I41
I954
tp1877
a(I217
I541
tp1878
a(I96
I541
tp1879
a(I41
I545
tp1880
a(I406
I909
tp1881
a(I243
I541
tp1882
a(I401
I541
tp1883
a(I378
I541
tp1884
a(I343
I541
tp1885
a(I23
I520
tp1886
a(I41
I860
tp1887
a(I35
I520
tp1888
a(I33
I520
tp1889
a(I41
I971
tp1890
a(I345
I782
tp1891
a(I254
I541
tp1892
a(I86
I541
tp1893
a(I3
I509
tp1894
a(I41
I690
tp1895
a(I170
I541
tp1896
a(I135
I541
tp1897
a(I41
I870
tp1898
a(I397
I909
tp1899
a(I196
I541
tp1900
a(I441
I861
tp1901
a(I152
I861
tp1902
a(I409
I932
tp1903
a(I41
I596
tp1904
a(I275
I541
tp1905
a(I409
I538
tp1906
a(I338
I541
tp1907
a(I297
I541
tp1908
a(I337
I758
tp1909
a(I397
I541
tp1910
a(I374
I541
tp1911
a(I361
I799
tp1912
a(I41
I786
tp1913
a(I409
I565
tp1914
a(I458
I541
tp1915
a(I423
I541
tp1916
a(I128
I541
tp1917
a(I41
I921
tp1918
a(I484
I541
tp1919
a(I388
I541
tp1920
a(I409
I720
tp1921
a(I471
I541
tp1922
a(I41
I820
tp1923
a(I337
I811
tp1924
a(I337
I982
tp1925
a(I226
I541
tp1926
a(I53
I541
tp1927
a(I191
I541
tp1928
a(I41
I657
tp1929
a(I406
I541
tp1930
a(I41
I837
tp1931
a(I416
I541
tp1932
a(I41
I972
tp1933
a(I409
I509
tp1934
a(I41
I699
tp1935
a(I454
I541
tp1936
a(I41
I879
tp1937
a(I345
I946
tp1938
a(I241
I541
tp1939
a(I41
I982
tp1940
a(I450
I541
tp1941
a(I409
I882
tp1942
a(I365
I541
tp1943
a(I41
I881
tp1944
a(I113
I541
tp1945
a(I220
I909
tp1946
a(I337
I918
tp1947
a(I267
I541
tp1948
a(I17
I626
tp1949
a(I89
I541
tp1950
a(I386
I541
tp1951
a(I41
I795
tp1952
a(I41
I750
tp1953
a(I189
I541
tp1954
a(I115
I541
tp1955
a(I412
I541
tp1956
a(I409
I687
tp1957
a(I495
I541
tp1958
a(I152
I909
tp1959
a(I237
I541
tp1960
a(I41
I932
tp1961
a(I460
I541
tp1962
a(I42
I541
tp1963
a(I298
I541
tp1964
a(I381
I541
tp1965
a(I68
I541
tp1966
a(I377
I541
tp1967
a(I263
I541
tp1968
a(I41
I846
tp1969
a(I137
I541
tp1970
a(I41
I700
tp1971
a(I337
I714
tp1972
a(I41
I848
tp1973
a(I111
I541
tp1974
a(I269
I541
tp1975
a(I246
I541
tp1976
a(I41
I991
tp1977
a(I476
I845
tp1978
a(I156
I541
tp1979
a(I295
I541
tp1980
a(I13
I503
tp1981
a(I41
I890
tp1982
a(I409
I541
tp1983
a(I478
I541
tp1984
a(I151
I541
tp1985
a(I41
I993
tp1986
a(I392
I541
tp1987
a(I5
I626
tp1988
a(I373
I541
tp1989
a(I41
I796
tp1990
a(I41
I727
tp1991
a(I457
I541
tp1992
a(I402
I541
tp1993
a(I41
I907
tp1994
a(I278
I541
tp1995
a(I483
I541
tp1996
a(I491
I541
tp1997
a(I41
I806
tp1998
a(I409
I553
tp1999
a(I41
I941
tp2000
a(I20
I535
tp2001
a(I32
I520
tp2002
a(I326
I541
tp2003
a(I139
I837
tp2004
a(I252
I541
tp2005
a(I403
I541
tp2006
a(I336
I541
tp2007
a(I405
I541
tp2008
a(I214
I837
tp2009
a(I41
I951
tp2010
a(I431
I541
tp2011
a(I296
I541
tp2012
a(I41
I857
tp2013
a(I174
I541
tp2014
a(I114
I541
tp2015
atRp2016
sS'R2'
p2017
g3
((lp2018
(I752
I1041
tp2019
a(I541
I1223
tp2020
a(I652
I1409
tp2021
a(I909
I1057
tp2022
a(I909
I1043
tp2023
a(I541
I1130
tp2024
a(I541
I1493
tp2025
a(I768
I1041
tp2026
a(I527
I1020
tp2027
a(I541
I1249
tp2028
a(I574
I1041
tp2029
a(I541
I1400
tp2030
a(I551
I1041
tp2031
a(I956
I1041
tp2032
a(I541
I1487
tp2033
a(I788
I1041
tp2034
a(I541
I1051
tp2035
a(I784
I1041
tp2036
a(I587
I1041
tp2037
a(I824
I1041
tp2038
a(I627
I1041
tp2039
a(I836
I1041
tp2040
a(I541
I1077
tp2041
a(I639
I1041
tp2042
a(I813
I1041
tp2043
a(I541
I1283
tp2044
a(I872
I1041
tp2045
a(I968
I1478
tp2046
a(I541
I1071
tp2047
a(I541
I1434
tp2048
a(I849
I1041
tp2049
a(I541
I1190
tp2050
a(I503
I1008
tp2051
a(I520
I1026
tp2052
a(I686
I1041
tp2053
a(I514
I1003
tp2054
a(I541
I1460
tp2055
a(I846
I1041
tp2056
a(I541
I1216
tp2057
a(I968
I1289
tp2058
a(I503
I1006
tp2059
a(I541
I1367
tp2060
a(I681
I1041
tp2061
a(I520
I1030
tp2062
a(I541
I1454
tp2063
a(I541
I1274
tp2064
a(I665
I1041
tp2065
a(I541
I1393
tp2066
a(I907
I1041
tp2067
a(I541
I1480
tp2068
a(I929
I1041
tp2069
a(I947
I1041
tp2070
a(I843
I1468
tp2071
a(I610
I1409
tp2072
a(I541
I1387
tp2073
a(I576
I1041
tp2074
a(I588
I1041
tp2075
a(I866
I1041
tp2076
a(I909
I1406
tp2077
a(I995
I1041
tp2078
a(I628
I1041
tp2079
a(I541
I1157
tp2080
a(I802
I1041
tp2081
a(I624
I1041
tp2082
a(I605
I1041
tp2083
a(I541
I1308
tp2084
a(I541
I1064
tp2085
a(I541
I1427
tp2086
a(I845
I1476
tp2087
a(I541
I1215
tp2088
a(I850
I1041
tp2089
a(I520
I1033
tp2090
a(I584
I1041
tp2091
a(I541
I1090
tp2092
a(I541
I1421
tp2093
a(I890
I1041
tp2094
a(I892
I1041
tp2095
a(I646
I1041
tp2096
a(I541
I1360
tp2097
a(I787
I1337
tp2098
a(I541
I1148
tp2099
a(I909
I1016
tp2100
a(I541
I1267
tp2101
a(I541
I1354
tp2102
a(I561
I1041
tp2103
a(I812
I1041
tp2104
a(I525
I1020
tp2105
a(I699
I1041
tp2106
a(I908
I1041
tp2107
a(I711
I1041
tp2108
a(I541
I1380
tp2109
a(I591
I1041
tp2110
a(I948
I1041
tp2111
a(I955
I1041
tp2112
a(I909
I1163
tp2113
a(I909
I1339
tp2114
a(I895
I1041
tp2115
a(I747
I1041
tp2116
a(I535
I1020
tp2117
a(I903
I1041
tp2118
a(I996
I1041
tp2119
a(I541
I1301
tp2120
a(I543
I1041
tp2121
a(I936
I1041
tp2122
a(I626
I1011
tp2123
a(I917
I1041
tp2124
a(I776
I1041
tp2125
a(I845
I1396
tp2126
a(I541
I1295
tp2127
a(I782
I1345
tp2128
a(I541
I1414
tp2129
a(I541
I1234
tp2130
a(I793
I1041
tp2131
a(I968
I1228
tp2132
a(I541
I1321
tp2133
a(I791
I1041
tp2134
a(I541
I1141
tp2135
a(I541
I1440
tp2136
a(I909
I1009
tp2137
a(I541
I1228
tp2138
a(I837
I1359
tp2139
a(I909
I1220
tp2140
a(I546
I1041
tp2141
a(I834
I1041
tp2142
a(I541
I1347
tp2143
a(I968
I1009
tp2144
a(I541
I1135
tp2145
a(I541
I1498
tp2146
a(I837
I1493
tp2147
a(I700
I1041
tp2148
a(I541
I1405
tp2149
a(I973
I1041
tp2150
a(I902
I1041
tp2151
a(I801
I1041
tp2152
a(I736
I1041
tp2153
a(I541
I1175
tp2154
a(I748
I1041
tp2155
a(I534
I1020
tp2156
a(I687
I1409
tp2157
a(I909
I1211
tp2158
a(I837
I1203
tp2159
a(I962
I1041
tp2160
a(I953
I1041
tp2161
a(I541
I1201
tp2162
a(I541
I1288
tp2163
a(I568
I1041
tp2164
a(I724
I1041
tp2165
a(I837
I1228
tp2166
a(I541
I1439
tp2167
a(I580
I1041
tp2168
a(I545
I1041
tp2169
a(I541
I1195
tp2170
a(I557
I1041
tp2171
a(I503
I1013
tp2172
a(I909
I1106
tp2173
a(I794
I1041
tp2174
a(I616
I1041
tp2175
a(I541
I1465
tp2176
a(I806
I1041
tp2177
a(I593
I1041
tp2178
a(I720
I1041
tp2179
a(I541
I1372
tp2180
a(I540
I1020
tp2181
a(I633
I1041
tp2182
a(I541
I1128
tp2183
a(I541
I1491
tp2184
a(I512
I1003
tp2185
a(I859
I1041
tp2186
a(I541
I1485
tp2187
a(I519
I1003
tp2188
a(I991
I1041
tp2189
a(I541
I1168
tp2190
a(I655
I1041
tp2191
a(I847
I1041
tp2192
a(I781
I1409
tp2193
a(I909
I1175
tp2194
a(I873
I1409
tp2195
a(I939
I1041
tp2196
a(I533
I1020
tp2197
a(I691
I1041
tp2198
a(I900
I1041
tp2199
a(I502
I1001
tp2200
a(I731
I1041
tp2201
a(I703
I1041
tp2202
a(I541
I1281
tp2203
a(I541
I1069
tp2204
a(I541
I1432
tp2205
a(I795
I1041
tp2206
a(I620
I1041
tp2207
a(I606
I1337
tp2208
a(I739
I1041
tp2209
a(I913
I1041
tp2210
a(I503
I1010
tp2211
a(I520
I1028
tp2212
a(I541
I1458
tp2213
a(I634
I1041
tp2214
a(I909
I1454
tp2215
a(I965
I1041
tp2216
a(I598
I1041
tp2217
a(I541
I1365
tp2218
a(I594
I1041
tp2219
a(I541
I1452
tp2220
a(I541
I1415
tp2221
a(I537
I1409
tp2222
a(I541
I1272
tp2223
a(I541
I1359
tp2224
a(I889
I1041
tp2225
a(I541
I1478
tp2226
a(I860
I1041
tp2227
a(I541
I1385
tp2228
a(I640
I1041
tp2229
a(I763
I1041
tp2230
a(I652
I1041
tp2231
a(I744
I1041
tp2232
a(I645
I1041
tp2233
a(I972
I1041
tp2234
a(I978
I1468
tp2235
a(I541
I1306
tp2236
a(I837
I1324
tp2237
a(I837
I1214
tp2238
a(I541
I1425
tp2239
a(I626
I1014
tp2240
a(I637
I1041
tp2241
a(I728
I1041
tp2242
a(I520
I1035
tp2243
a(I703
I1337
tp2244
a(I740
I1041
tp2245
a(I705
I1041
tp2246
a(I914
I1041
tp2247
a(I717
I1041
tp2248
a(I541
I1239
tp2249
a(I994
I1041
tp2250
a(I954
I1041
tp2251
a(I541
I1326
tp2252
a(I757
I1041
tp2253
a(I966
I1041
tp2254
a(I541
I1146
tp2255
a(I541
I1445
tp2256
a(I909
I1014
tp2257
a(I541
I1352
tp2258
a(I536
I1020
tp2259
a(I968
I1409
tp2260
a(I549
I1041
tp2261
a(I837
I1139
tp2262
a(I798
I1041
tp2263
a(I541
I1378
tp2264
a(I585
I1041
tp2265
a(I775
I1041
tp2266
a(I845
I1342
tp2267
a(I987
I1041
tp2268
a(I909
I1397
tp2269
a(I815
I1041
tp2270
a(I875
I1041
tp2271
a(I811
I1041
tp2272
a(I541
I1299
tp2273
a(I851
I1041
tp2274
a(I626
I1009
tp2275
a(I863
I1041
tp2276
a(I909
I1478
tp2277
a(I589
I1361
tp2278
a(I541
I1293
tp2279
a(I520
I1037
tp2280
a(I541
I1412
tp2281
a(I643
I1041
tp2282
a(I706
I1041
tp2283
a(I832
I1361
tp2284
a(I845
I1356
tp2285
a(I707
I1041
tp2286
a(I541
I1139
tp2287
a(I541
I1470
tp2288
a(I758
I1041
tp2289
a(I711
I1409
tp2290
a(I541
I1226
tp2291
a(I754
I1041
tp2292
a(I845
I1446
tp2293
a(I541
I1345
tp2294
a(I968
I1011
tp2295
a(I541
I1133
tp2296
a(I541
I1496
tp2297
a(I550
I1041
tp2298
a(I513
I1003
tp2299
a(I541
I1403
tp2300
a(I511
I1126
tp2301
a(I520
I1024
tp2302
a(I675
I1126
tp2303
a(I586
I1041
tp2304
a(I526
I1020
tp2305
a(I905
I1041
tp2306
a(I517
I1003
tp2307
a(I541
I1173
tp2308
a(I769
I1041
tp2309
a(I800
I1041
tp2310
a(I528
I1020
tp2311
a(I638
I1041
tp2312
a(I603
I1041
tp2313
a(I506
I1003
tp2314
a(I615
I1041
tp2315
a(I663
I1409
tp2316
a(I541
I1167
tp2317
a(I852
I1041
tp2318
a(I990
I1041
tp2319
a(I541
I1286
tp2320
a(I829
I1041
tp2321
a(I968
I1475
tp2322
a(I541
I1106
tp2323
a(I541
I1437
tp2324
a(I518
I1003
tp2325
a(I541
I1193
tp2326
a(I644
I1041
tp2327
a(I865
I1041
tp2328
a(I541
I1312
tp2329
a(I877
I1041
tp2330
a(I541
I1463
tp2331
a(I680
I1041
tp2332
a(I661
I1041
tp2333
a(I541
I1370
tp2334
a(I657
I1041
tp2335
a(I941
I1468
tp2336
a(I541
I1489
tp2337
a(I910
I1041
tp2338
a(I582
I1041
tp2339
a(I541
I1277
tp2340
a(I906
I1041
tp2341
a(I669
I1041
tp2342
a(I709
I1041
tp2343
a(I541
I1396
tp2344
a(I837
I1363
tp2345
a(I958
I1041
tp2346
a(I541
I1047
tp2347
a(I745
I1041
tp2348
a(I909
I1065
tp2349
a(I541
I1390
tp2350
a(I692
I1041
tp2351
a(I735
I1345
tp2352
a(I896
I1345
tp2353
a(I909
I1345
tp2354
a(I971
I1041
tp2355
a(I604
I1041
tp2356
a(I714
I1041
tp2357
a(I541
I1311
tp2358
a(I541
I1067
tp2359
a(I541
I1430
tp2360
a(I541
I1186
tp2361
a(I541
I1337
tp2362
a(I803
I1041
tp2363
a(I918
I1041
tp2364
a(I541
I1456
tp2365
a(I861
I1339
tp2366
a(I541
I1244
tp2367
a(I602
I1041
tp2368
a(I541
I1363
tp2369
a(I821
I1409
tp2370
a(I662
I1041
tp2371
a(I541
I1450
tp2372
a(I658
I1041
tp2373
a(I541
I1357
tp2374
a(I698
I1041
tp2375
a(I541
I1476
tp2376
a(I506
I1126
tp2377
a(I928
I1041
tp2378
a(I750
I1041
tp2379
a(I541
I1383
tp2380
a(I924
I1041
tp2381
a(I746
I1041
tp2382
a(I727
I1041
tp2383
a(I710
I1041
tp2384
a(I960
I1041
tp2385
a(I542
I1041
tp2386
a(I909
I1447
tp2387
a(I504
I1126
tp2388
a(I541
I1304
tp2389
a(I869
I1041
tp2390
a(I909
I1293
tp2391
a(I559
I1041
tp2392
a(I989
I1041
tp2393
a(I555
I1041
tp2394
a(I541
I1330
tp2395
a(I792
I1041
tp2396
a(I541
I1417
tp2397
a(I595
I1041
tp2398
a(I804
I1041
tp2399
a(I541
I1237
tp2400
a(I607
I1041
tp2401
a(I781
I1041
tp2402
a(I541
I1324
tp2403
a(I541
I1443
tp2404
a(I840
I1041
tp2405
a(I713
I1041
tp2406
a(I541
I1231
tp2407
a(I817
I1041
tp2408
a(I541
I1350
tp2409
a(I909
I1382
tp2410
a(I622
I1361
tp2411
a(I857
I1041
tp2412
a(I517
I1126
tp2413
a(I837
I1250
tp2414
a(I925
I1041
tp2415
a(I956
I1468
tp2416
a(I541
I1376
tp2417
a(I753
I1041
tp2418
a(I980
I1041
tp2419
a(I649
I1041
tp2420
a(I837
I1425
tp2421
a(I854
I1041
tp2422
a(I541
I1297
tp2423
a(I542
I1409
tp2424
a(I764
I1041
tp2425
a(I861
I1299
tp2426
a(I541
I1204
tp2427
a(I915
I1041
tp2428
a(I714
I1337
tp2429
a(I541
I1291
tp2430
a(I544
I1041
tp2431
a(I541
I1111
tp2432
a(I541
I1410
tp2433
a(I837
I1304
tp2434
a(I837
I1078
tp2435
a(I963
I1041
tp2436
a(I503
I1016
tp2437
a(I541
I1317
tp2438
a(I770
I1041
tp2439
a(I592
I1041
tp2440
a(I909
I1281
tp2441
a(I541
I1468
tp2442
a(I837
I1488
tp2443
a(I632
I1041
tp2444
a(I822
I1041
tp2445
a(I983
I1041
tp2446
a(I609
I1041
tp2447
a(I818
I1041
tp2448
a(I541
I1494
tp2449
a(I621
I1041
tp2450
a(I541
I1250
tp2451
a(I738
I1041
tp2452
a(I638
I1361
tp2453
a(I855
I1041
tp2454
a(I505
I1126
tp2455
a(I541
I1401
tp2456
a(I870
I1041
tp2457
a(I508
I1126
tp2458
a(I909
I1152
tp2459
a(I810
I1041
tp2460
a(I509
I1468
tp2461
a(I959
I1041
tp2462
a(I650
I1041
tp2463
a(I887
I1041
tp2464
a(I825
I1337
tp2465
a(I541
I1078
tp2466
a(I702
I1041
tp2467
a(I667
I1041
tp2468
a(I541
I1165
tp2469
a(I679
I1041
tp2470
a(I541
I1284
tp2471
a(I541
I1259
tp2472
a(I916
I1041
tp2473
a(I541
I1435
tp2474
a(I912
I1041
tp2475
a(I541
I1191
tp2476
a(I629
I1041
tp2477
a(I503
I1009
tp2478
a(I520
I1025
tp2479
a(I946
I1041
tp2480
a(I755
I1041
tp2481
a(I964
I1041
tp2482
a(I837
I1325
tp2483
a(I767
I1041
tp2484
a(I941
I1041
tp2485
a(I513
I1126
tp2486
a(I503
I1007
tp2487
a(I541
I1368
tp2488
a(I639
I1337
tp2489
a(I981
I1041
tp2490
a(I909
I1300
tp2491
a(I541
I1455
tp2492
a(I909
I1476
tp2493
a(I610
I1041
tp2494
a(I541
I1275
tp2495
a(I541
I1394
tp2496
a(I541
I1481
tp2497
a(I541
I1045
tp2498
a(I541
I1388
tp2499
a(I809
I1041
tp2500
a(I927
I1041
tp2501
a(I611
I1041
tp2502
a(I668
I1041
tp2503
a(I541
I1309
tp2504
a(I541
I1428
tp2505
a(I837
I1131
tp2506
a(I541
I1184
tp2507
a(I505
I1409
tp2508
a(I704
I1041
tp2509
a(I541
I1335
tp2510
a(I716
I1041
tp2511
a(I541
I1129
tp2512
a(I541
I1422
tp2513
a(I556
I1041
tp2514
a(I511
I1409
tp2515
a(I756
I1041
tp2516
a(I930
I1041
tp2517
a(I845
I1366
tp2518
a(I541
I1361
tp2519
a(I941
I1361
tp2520
a(I719
I1041
tp2521
a(I520
I1031
tp2522
a(I541
I1448
tp2523
a(I909
I1017
tp2524
a(I541
I1268
tp2525
a(I548
I1041
tp2526
a(I978
I1041
tp2527
a(I541
I1355
tp2528
a(I866
I1345
tp2529
a(I541
I1262
tp2530
a(I565
I1041
tp2531
a(I774
I1041
tp2532
a(I524
I1020
tp2533
a(I541
I1381
tp2534
a(I896
I1041
tp2535
a(I814
I1041
tp2536
a(I601
I1041
tp2537
a(I508
I1003
tp2538
a(I743
I1409
tp2539
a(I596
I1041
tp2540
a(I734
I1041
tp2541
a(I541
I1302
tp2542
a(I858
I1041
tp2543
a(I827
I1041
tp2544
a(I839
I1041
tp2545
a(I909
I1451
tp2546
a(I516
I1409
tp2547
a(I541
I1328
tp2548
a(I879
I1041
tp2549
a(I837
I1311
tp2550
a(I909
I1443
tp2551
a(I975
I1468
tp2552
a(I659
I1041
tp2553
a(I541
I1322
tp2554
a(I968
I1471
tp2555
a(I671
I1041
tp2556
a(I541
I1142
tp2557
a(I541
I1441
tp2558
a(I982
I1041
tp2559
a(I881
I1041
tp2560
a(I904
I1041
tp2561
a(I837
I1482
tp2562
a(I541
I1348
tp2563
a(I968
I1008
tp2564
a(I541
I1499
tp2565
a(I541
I1255
tp2566
a(I921
I1041
tp2567
a(I909
I1038
tp2568
a(I933
I1041
tp2569
a(I566
I1041
tp2570
a(I508
I1468
tp2571
a(I523
I1020
tp2572
a(I562
I1041
tp2573
a(I721
I1041
tp2574
a(I853
I1041
tp2575
a(I538
I1361
tp2576
a(I951
I1409
tp2577
a(I614
I1041
tp2578
a(I751
I1041
tp2579
a(I541
I1083
tp2580
a(I626
I1175
tp2581
a(I944
I1041
tp2582
a(I626
I1005
tp2583
a(I505
I1003
tp2584
a(I828
I1041
tp2585
a(I631
I1041
tp2586
a(I541
I1289
tp2587
a(I974
I1041
tp2588
a(I541
I1408
tp2589
a(I864
I1041
tp2590
a(I541
I1196
tp2591
a(I842
I1345
tp2592
a(I503
I1018
tp2593
a(I909
I1321
tp2594
a(I541
I1103
tp2595
a(I660
I1041
tp2596
a(I626
I1300
tp2597
a(I599
I1041
tp2598
a(I656
I1041
tp2599
a(I893
I1041
tp2600
a(I947
I1409
tp2601
a(I541
I1373
tp2602
a(I696
I1041
tp2603
a(I541
I1338
tp2604
a(I541
I1492
tp2605
a(I651
I1041
tp2606
a(I708
I1041
tp2607
a(I673
I1041
tp2608
a(I541
I1248
tp2609
a(I510
I1003
tp2610
a(I685
I1041
tp2611
a(I541
I1399
tp2612
a(I922
I1041
tp2613
a(I541
I1486
tp2614
a(I725
I1041
tp2615
a(I934
I1041
tp2616
a(I979
I1041
tp2617
a(I522
I1020
tp2618
a(I909
I1466
tp2619
a(I541
I1169
tp2620
a(I871
I1041
tp2621
a(I932
I1409
tp2622
a(I761
I1041
tp2623
a(I970
I1041
tp2624
a(I951
I1041
tp2625
a(I961
I1041
tp2626
a(I532
I1020
tp2627
a(I541
I1282
tp2628
a(I553
I1041
tp2629
a(I999
I1041
tp2630
a(I541
I1433
tp2631
a(I909
I1005
tp2632
a(I783
I1041
tp2633
a(I503
I1011
tp2634
a(I520
I1027
tp2635
a(I779
I1041
tp2636
a(I541
I1096
tp2637
a(I541
I1459
tp2638
a(I661
I1345
tp2639
a(I541
I1247
tp2640
a(I971
I1468
tp2641
a(I831
I1041
tp2642
a(I541
I1366
tp2643
a(I968
I1459
tp2644
a(I821
I1041
tp2645
a(I541
I1453
tp2646
a(I642
I1041
tp2647
a(I867
I1041
tp2648
a(I541
I1392
tp2649
a(I573
I1041
tp2650
a(I880
I1041
tp2651
a(I541
I1479
tp2652
a(I733
I1041
tp2653
a(I909
I1373
tp2654
a(I837
I1106
tp2655
a(I726
I1041
tp2656
a(I541
I1386
tp2657
a(I606
I1409
tp2658
a(I521
I1020
tp2659
a(I509
I1003
tp2660
a(I509
I1126
tp2661
a(I909
I1405
tp2662
a(I762
I1041
tp2663
a(I909
I1243
tp2664
a(I541
I1307
tp2665
a(I558
I1041
tp2666
a(I579
I1041
tp2667
a(I541
I1426
tp2668
a(I626
I1017
tp2669
a(I845
I1475
tp2670
a(I541
I1214
tp2671
a(I520
I1034
tp2672
a(I943
I1409
tp2673
a(I720
I1409
tp2674
a(I541
I1089
tp2675
a(I541
I1420
tp2676
a(I571
I1041
tp2677
a(I780
I1041
tp2678
a(I583
I1041
tp2679
a(I541
I1327
tp2680
a(I820
I1041
tp2681
a(I623
I1041
tp2682
a(I541
I1446
tp2683
a(I797
I1041
tp2684
a(I619
I1041
tp2685
a(I541
I1266
tp2686
a(I856
I1041
tp2687
a(I541
I1353
tp2688
a(I868
I1041
tp2689
a(I541
I1340
tp2690
a(I541
I1472
tp2691
a(I796
I1041
tp2692
a(I845
I1041
tp2693
a(I541
I1260
tp2694
a(I541
I1379
tp2695
a(I648
I1041
tp2696
a(I885
I1041
tp2697
a(I663
I1041
tp2698
a(I823
I1041
tp2699
a(I538
I1409
tp2700
a(I992
I1041
tp2701
a(I677
I1041
tp2702
a(I897
I1409
tp2703
a(I541
I1056
tp2704
a(I976
I1345
tp2705
a(I626
I1008
tp2706
a(I926
I1041
tp2707
a(I652
I1361
tp2708
a(I530
I1020
tp2709
a(I805
I1041
tp2710
a(I541
I1294
tp2711
a(I541
I1413
tp2712
a(I516
I1003
tp2713
a(I943
I1041
tp2714
a(I541
I1233
tp2715
a(I819
I1041
tp2716
a(I572
I1041
tp2717
a(I541
I1320
tp2718
a(I541
I1140
tp2719
a(I541
I1471
tp2720
a(I861
I1322
tp2721
a(I590
I1041
tp2722
a(I909
I1008
tp2723
a(I541
I1227
tp2724
a(I608
I1041
tp2725
a(I541
I1346
tp2726
a(I541
I1497
tp2727
a(I771
I1041
tp2728
a(I541
I1253
tp2729
a(I654
I1041
tp2730
a(I845
I1409
tp2731
a(I537
I1361
tp2732
a(I886
I1041
tp2733
a(I567
I1041
tp2734
a(I909
I1468
tp2735
a(I882
I1041
tp2736
a(I541
I1174
tp2737
a(I613
I1041
tp2738
a(I666
I1041
tp2739
a(I678
I1041
tp2740
a(I837
I1283
tp2741
a(I541
I1200
tp2742
a(I841
I1041
tp2743
a(I718
I1041
tp2744
a(I541
I1287
tp2745
a(I529
I1020
tp2746
a(I695
I1041
tp2747
a(I541
I1438
tp2748
a(I565
I1409
tp2749
a(I654
I1361
tp2750
a(I968
I1343
tp2751
a(I503
I1012
tp2752
a(I541
I1313
tp2753
a(I766
I1041
tp2754
a(I715
I1041
tp2755
a(I940
I1041
tp2756
a(I786
I1041
tp2757
a(I541
I1464
tp2758
a(I743
I1041
tp2759
a(I539
I1020
tp2760
a(I909
I1067
tp2761
a(I976
I1041
tp2762
a(I957
I1041
tp2763
a(I541
I1127
tp2764
a(I541
I1278
tp2765
a(I563
I1041
tp2766
a(I772
I1041
tp2767
a(I993
I1041
tp2768
a(I575
I1041
tp2769
a(I816
I1041
tp2770
a(I541
I1342
tp2771
a(I674
I1041
tp2772
a(I808
I1041
tp2773
a(I789
I1041
tp2774
a(I541
I1391
tp2775
a(I984
I1041
tp2776
a(I785
I1041
tp2777
a(I507
I1003
tp2778
a(I876
I1041
tp2779
a(I825
I1041
tp2780
a(I837
I1041
tp2781
a(I919
I1409
tp2782
a(I541
I1280
tp2783
a(I615
I1337
tp2784
a(I541
I1068
tp2785
a(I541
I1431
tp2786
a(I923
I1041
tp2787
a(I873
I1041
tp2788
a(I541
I1187
tp2789
a(I759
I1041
tp2790
a(I520
I1029
tp2791
a(I909
I1037
tp2792
a(I722
I1041
tp2793
a(I541
I1457
tp2794
a(I732
I1041
tp2795
a(I541
I1245
tp2796
a(I541
I1364
tp2797
a(I909
I1379
tp2798
a(I538
I1020
tp2799
a(I541
I1451
tp2800
a(I976
I1409
tp2801
a(I911
I1041
tp2802
a(I541
I1271
tp2803
a(I541
I1358
tp2804
a(I931
I1041
tp2805
a(I564
I1041
tp2806
a(I541
I1477
tp2807
a(I909
I1375
tp2808
a(I560
I1041
tp2809
a(I848
I1041
tp2810
a(I842
I1041
tp2811
a(I541
I1384
tp2812
a(I711
I1345
tp2813
a(I600
I1041
tp2814
a(I790
I1041
tp2815
a(I967
I1041
tp2816
a(I612
I1041
tp2817
a(I577
I1041
tp2818
a(I520
I1023
tp2819
a(I589
I1041
tp2820
a(I861
I1037
tp2821
a(I826
I1041
tp2822
a(I541
I1305
tp2823
a(I838
I1041
tp2824
a(I625
I1041
tp2825
a(I878
I1041
tp2826
a(I547
I1041
tp2827
a(I874
I1041
tp2828
a(I520
I1036
tp2829
a(I541
I1331
tp2830
a(I541
I1418
tp2831
a(I845
I1499
tp2832
a(I541
I1238
tp2833
a(I888
I1041
tp2834
a(I670
I1041
tp2835
a(I891
I1041
tp2836
a(I541
I1325
tp2837
a(I833
I1041
tp2838
a(I647
I1041
tp2839
a(I541
I1444
tp2840
a(I909
I1419
tp2841
a(I909
I1013
tp2842
a(I541
I1264
tp2843
a(I687
I1041
tp2844
a(I541
I1351
tp2845
a(I920
I1041
tp2846
a(I969
I1041
tp2847
a(I723
I1041
tp2848
a(I541
I1258
tp2849
a(I897
I1041
tp2850
a(I735
I1041
tp2851
a(I541
I1377
tp2852
a(I909
I1343
tp2853
a(I909
I1160
tp2854
a(I968
I1041
tp2855
a(I949
I1041
tp2856
a(I945
I1041
tp2857
a(I578
I1041
tp2858
a(I541
I1179
tp2859
a(I909
I1446
tp2860
a(I932
I1041
tp2861
a(I899
I1041
tp2862
a(I541
I1298
tp2863
a(I909
I1432
tp2864
a(I988
I1041
tp2865
a(I997
I1041
tp2866
a(I630
I1041
tp2867
a(I626
I1006
tp2868
a(I541
I1205
tp2869
a(I626
I1041
tp2870
a(I541
I1292
tp2871
a(I777
I1041
tp2872
a(I541
I1411
tp2873
a(I541
I1199
tp2874
a(I503
I1017
tp2875
a(I909
I1110
tp2876
a(I787
I1041
tp2877
a(I837
I1258
tp2878
a(I541
I1469
tp2879
a(I765
I1041
tp2880
a(I541
I1225
tp2881
a(I541
I1344
tp2882
a(I672
I1041
tp2883
a(I541
I1495
tp2884
a(I684
I1041
tp2885
a(I541
I1251
tp2886
a(I531
I1020
tp2887
a(I799
I1041
tp2888
a(I541
I1402
tp2889
a(I898
I1041
tp2890
a(I511
I1468
tp2891
a(I701
I1041
tp2892
a(I554
I1041
tp2893
a(I760
I1041
tp2894
a(I950
I1041
tp2895
a(I737
I1041
tp2896
a(I504
I1003
tp2897
a(I749
I1041
tp2898
a(I537
I1020
tp2899
a(I986
I1041
tp2900
a(I567
I1409
tp2901
a(I552
I1041
tp2902
a(I998
I1041
tp2903
a(I975
I1345
tp2904
a(I682
I1041
tp2905
a(I782
I1041
tp2906
a(I837
I1287
tp2907
a(I569
I1041
tp2908
a(I778
I1041
tp2909
a(I511
I1003
tp2910
a(I581
I1041
tp2911
a(I503
I1014
tp2912
a(I541
I1343
tp2913
a(I514
I1409
tp2914
a(I541
I1333
tp2915
a(I541
I1462
tp2916
a(I830
I1041
tp2917
a(I683
I1041
tp2918
a(I541
I1218
tp2919
a(I617
I1041
tp2920
a(I807
I1041
tp2921
a(I541
I1369
tp2922
a(I968
I1456
tp2923
a(I541
I1488
tp2924
a(I697
I1041
tp2925
a(I688
I1041
tp2926
a(I843
I1041
tp2927
a(I541
I1395
tp2928
a(I883
I1041
tp2929
a(I541
I1482
tp2930
a(I606
I1041
tp2931
a(I831
I1361
tp2932
a(I541
I1046
tp2933
a(I909
I1053
tp2934
a(I856
I1345
tp2935
a(I675
I1041
tp2936
a(I541
I1072
tp2937
a(I541
I1159
tp2938
a(I901
I1041
tp2939
a(I660
I1409
tp2940
a(I541
I1429
tp2941
a(I937
I1041
tp2942
a(I541
I1336
tp2943
a(I597
I1041
tp2944
a(I909
I1332
tp2945
a(I541
I1423
tp2946
a(I978
I1409
tp2947
a(I541
I1243
tp2948
a(I717
I1345
tp2949
a(I622
I1041
tp2950
a(I514
I1126
tp2951
a(I541
I1362
tp2952
a(I618
I1041
tp2953
a(I909
I1041
tp2954
a(I587
I1468
tp2955
a(I832
I1041
tp2956
a(I541
I1356
tp2957
a(I635
I1041
tp2958
a(I844
I1041
tp2959
a(I541
I1475
tp2960
a(I884
I1041
tp2961
a(I909
I1252
tp2962
a(I793
I1409
tp2963
a(I541
I1382
tp2964
a(I861
I1041
tp2965
a(I845
I1282
tp2966
a(I664
I1041
tp2967
a(I935
I1041
tp2968
a(I676
I1041
tp2969
a(I641
I1041
tp2970
a(I653
I1041
tp2971
a(I541
I1303
tp2972
a(I570
I1041
tp2973
a(I837
I1361
tp2974
a(I712
I1041
tp2975
a(I693
I1041
tp2976
a(I626
I1013
tp2977
a(I879
I1409
tp2978
a(I541
I1210
tp2979
a(I689
I1041
tp2980
a(I520
I1038
tp2981
a(I942
I1041
tp2982
a(I952
I1041
tp2983
a(I729
I1041
tp2984
a(I938
I1041
tp2985
a(I919
I1041
tp2986
a(I741
I1041
tp2987
a(I541
I1236
tp2988
a(I909
I1187
tp2989
a(I515
I1003
tp2990
a(I773
I1041
tp2991
a(I520
I1032
tp2992
a(I541
I1442
tp2993
a(I909
I1011
tp2994
a(I975
I1041
tp2995
a(I541
I1349
tp2996
a(I562
I1409
tp2997
a(I636
I1041
tp2998
a(I541
I1256
tp2999
a(I977
I1041
tp3000
a(I541
I1407
tp3001
a(I875
I1409
tp3002
a(I909
I1137
tp3003
a(I909
I1158
tp3004
a(I862
I1041
tp3005
a(I837
I1178
tp3006
a(I906
I1409
tp3007
a(I837
I1418
tp3008
a(I835
I1041
tp3009
a(I742
I1041
tp3010
a(I541
I1296
tp3011
a(I985
I1041
tp3012
a(I626
I1004
tp3013
a(I694
I1041
tp3014
a(I541
I1290
tp3015
a(I894
I1041
tp3016
a(I690
I1041
tp3017
a(I541
I1409
tp3018
a(I730
I1041
tp3019
a(I839
I1361
tp3020
a(I541
I1316
tp3021
a(I541
I1467
tp3022
atRp3023
sS'R3'
p3024
g3
((lp3025
(I1253
I41
tp3026
a(I1041
I392
tp3027
a(I1468
I228
tp3028
a(I1041
I299
tp3029
a(I1175
I126
tp3030
a(I1047
I41
tp3031
a(I1041
I418
tp3032
a(I1471
I468
tp3033
a(I1078
I41
tp3034
a(I1427
I41
tp3035
a(I1020
I33
tp3036
a(I1487
I41
tp3037
a(I1041
I333
tp3038
a(I1083
I41
tp3039
a(I1198
I41
tp3040
a(I1041
I452
tp3041
a(I1233
I41
tp3042
a(I1144
I41
tp3043
a(I1409
I321
tp3044
a(I1020
I31
tp3045
a(I1041
I51
tp3046
a(I1345
I396
tp3047
a(I1041
I359
tp3048
a(I1041
I478
tp3049
a(I1129
I41
tp3050
a(I1143
I41
tp3051
a(I1041
I377
tp3052
a(I1041
I204
tp3053
a(I1008
I126
tp3054
a(I1041
I496
tp3055
a(I1409
I478
tp3056
a(I1041
I111
tp3057
a(I1259
I41
tp3058
a(I1157
I41
tp3059
a(I1041
I266
tp3060
a(I1409
I13
tp3061
a(I1327
I41
tp3062
a(I1041
I385
tp3063
a(I1041
I248
tp3064
a(I1428
I41
tp3065
a(I1017
I3
tp3066
a(I1229
I41
tp3067
a(I1041
I411
tp3068
a(I1260
I41
tp3069
a(I1161
I345
tp3070
a(I1003
I16
tp3071
a(I1064
I41
tp3072
a(I1041
I326
tp3073
a(I1265
I41
tp3074
a(I1041
I445
tp3075
a(I1086
I41
tp3076
a(I1084
I41
tp3077
a(I1449
I41
tp3078
a(I1463
I41
tp3079
a(I1325
I337
tp3080
a(I1041
I344
tp3081
a(I1332
I361
tp3082
a(I1041
I471
tp3083
a(I1120
I41
tp3084
a(I1069
I41
tp3085
a(I1499
I41
tp3086
a(I1041
I78
tp3087
a(I1130
I41
tp3088
a(I1014
I126
tp3089
a(I1041
I370
tp3090
a(I1041
I489
tp3091
a(I1468
I11
tp3092
a(I1151
I41
tp3093
a(I1149
I41
tp3094
a(I1041
I96
tp3095
a(I1041
I223
tp3096
a(I1333
I41
tp3097
a(I1041
I259
tp3098
a(I1067
I409
tp3099
a(I1369
I41
tp3100
a(I1041
I293
tp3101
a(I1217
I345
tp3102
a(I1041
I412
tp3103
a(I1293
I409
tp3104
a(I1003
I9
tp3105
a(I1345
I356
tp3106
a(I1041
I130
tp3107
a(I1009
I3
tp3108
a(I1041
I438
tp3109
a(I1266
I41
tp3110
a(I1440
I41
tp3111
a(I1041
I45
tp3112
a(I1041
I337
tp3113
a(I1450
I41
tp3114
a(I1409
I447
tp3115
a(I1443
I41
tp3116
a(I1041
I456
tp3117
a(I1409
I67
tp3118
a(I1138
I361
tp3119
a(I1041
I71
tp3120
a(I1469
I41
tp3121
a(I1041
I363
tp3122
a(I1041
I190
tp3123
a(I1041
I482
tp3124
a(I1041
I89
tp3125
a(I1409
I252
tp3126
a(I1015
I3
tp3127
a(I1023
I20
tp3128
a(I1326
I41
tp3129
a(I1146
I41
tp3130
a(I1041
I260
tp3131
a(I1127
I41
tp3132
a(I1105
I41
tp3133
a(I1099
I41
tp3134
a(I1126
I6
tp3135
a(I1041
I234
tp3136
a(I1337
I325
tp3137
a(I1041
I286
tp3138
a(I1370
I41
tp3139
a(I1041
I405
tp3140
a(I1482
I41
tp3141
a(I1347
I41
tp3142
a(I1345
I41
tp3143
a(I1003
I14
tp3144
a(I1391
I41
tp3145
a(I1041
I304
tp3146
a(I1409
I43
tp3147
a(I1011
I126
tp3148
a(I1041
I431
tp3149
a(I1020
I36
tp3150
a(I1041
I330
tp3151
a(I1041
I157
tp3152
a(I1468
I471
tp3153
a(I1456
I468
tp3154
a(I1041
I56
tp3155
a(I1409
I211
tp3156
a(I1220
I409
tp3157
a(I1041
I364
tp3158
a(I1231
I41
tp3159
a(I1041
I475
tp3160
a(I1025
I20
tp3161
a(I1447
I41
tp3162
a(I1478
I41
tp3163
a(I1267
I41
tp3164
a(I1041
I201
tp3165
a(I1409
I332
tp3166
a(I1409
I16
tp3167
a(I1483
I41
tp3168
a(I1177
I41
tp3169
a(I1288
I41
tp3170
a(I1302
I41
tp3171
a(I1041
I227
tp3172
a(I1065
I409
tp3173
a(I1287
I41
tp3174
a(I1003
I7
tp3175
a(I1337
I304
tp3176
a(I1348
I41
tp3177
a(I1041
I297
tp3178
a(I1346
I41
tp3179
a(I1152
I409
tp3180
a(I1361
I299
tp3181
a(I1353
I41
tp3182
a(I1020
I35
tp3183
a(I1367
I41
tp3184
a(I1384
I41
tp3185
a(I1016
I3
tp3186
a(I1172
I41
tp3187
a(I1041
I442
tp3188
a(I1017
I126
tp3189
a(I1403
I41
tp3190
a(I1020
I25
tp3191
a(I1208
I41
tp3192
a(I1041
I357
tp3193
a(I1041
I168
tp3194
a(I1409
I419
tp3195
a(I1041
I476
tp3196
a(I1077
I41
tp3197
a(I1164
I41
tp3198
a(I1038
I409
tp3199
a(I1193
I41
tp3200
a(I1041
I383
tp3201
a(I1237
I41
tp3202
a(I1478
I409
tp3203
a(I1268
I41
tp3204
a(I1409
I476
tp3205
a(I1243
I41
tp3206
a(I1484
I41
tp3207
a(I1273
I41
tp3208
a(I1041
I228
tp3209
a(I1048
I41
tp3210
a(I1041
I264
tp3211
a(I1041
I391
tp3212
a(I1337
I178
tp3213
a(I1005
I409
tp3214
a(I1103
I41
tp3215
a(I1041
I290
tp3216
a(I1409
I37
tp3217
a(I1041
I409
tp3218
a(I1293
I41
tp3219
a(I1003
I18
tp3220
a(I1324
I41
tp3221
a(I1113
I41
tp3222
a(I1041
I324
tp3223
a(I1041
I435
tp3224
a(I1329
I41
tp3225
a(I1360
I41
tp3226
a(I1406
I41
tp3227
a(I1203
I337
tp3228
a(I1041
I350
tp3229
a(I1494
I41
tp3230
a(I1041
I469
tp3231
a(I1354
I41
tp3232
a(I1184
I41
tp3233
a(I1389
I41
tp3234
a(I1041
I368
tp3235
a(I1041
I187
tp3236
a(I1464
I41
tp3237
a(I1194
I41
tp3238
a(I1041
I495
tp3239
a(I1169
I41
tp3240
a(I1215
I41
tp3241
a(I1213
I41
tp3242
a(I1246
I41
tp3243
a(I1244
I41
tp3244
a(I1274
I41
tp3245
a(I1013
I3
tp3246
a(I1062
I409
tp3247
a(I1251
I41
tp3248
a(I1249
I41
tp3249
a(I1126
I13
tp3250
a(I1041
I247
tp3251
a(I1070
I41
tp3252
a(I1041
I283
tp3253
a(I1433
I41
tp3254
a(I1041
I402
tp3255
a(I1163
I409
tp3256
a(I1003
I11
tp3257
a(I1055
I41
tp3258
a(I1041
I317
tp3259
a(I1041
I128
tp3260
a(I1114
I41
tp3261
a(I1409
I175
tp3262
a(I1453
I41
tp3263
a(I1091
I41
tp3264
a(I1089
I41
tp3265
a(I1330
I41
tp3266
a(I1041
I343
tp3267
a(I1041
I462
tp3268
a(I1409
I65
tp3269
a(I1041
I69
tp3270
a(I1382
I41
tp3271
a(I1475
I345
tp3272
a(I1041
I361
tp3273
a(I1409
I343
tp3274
a(I1404
I41
tp3275
a(I1041
I480
tp3276
a(I1041
I214
tp3277
a(I1170
I41
tp3278
a(I1337
I488
tp3279
a(I1451
I409
tp3280
a(I1191
I41
tp3281
a(I1014
I3
tp3282
a(I1126
I4
tp3283
a(I1222
I41
tp3284
a(I1252
I41
tp3285
a(I1041
I284
tp3286
a(I1041
I395
tp3287
a(I1009
I126
tp3288
a(I1434
I41
tp3289
a(I1046
I41
tp3290
a(I1411
I41
tp3291
a(I1409
I41
tp3292
a(I1282
I345
tp3293
a(I1455
I41
tp3294
a(I1041
I429
tp3295
a(I1409
I160
tp3296
a(I1020
I38
tp3297
a(I1061
I41
tp3298
a(I1041
I328
tp3299
a(I1491
I41
tp3300
a(I1092
I41
tp3301
a(I1090
I41
tp3302
a(I1041
I455
tp3303
a(I1020
I28
tp3304
a(I1097
I41
tp3305
a(I1111
I41
tp3306
a(I1041
I354
tp3307
a(I1142
I41
tp3308
a(I1409
I163
tp3309
a(I1441
I361
tp3310
a(I1295
I41
tp3311
a(I1207
I41
tp3312
a(I1147
I41
tp3313
a(I1041
I499
tp3314
a(I1122
I361
tp3315
a(I1041
I106
tp3316
a(I1345
I475
tp3317
a(I1041
I225
tp3318
a(I1041
I277
tp3319
a(I1409
I8
tp3320
a(I1315
I41
tp3321
a(I1041
I396
tp3322
a(I1126
I17
tp3323
a(I1041
I251
tp3324
a(I1228
I41
tp3325
a(I1041
I303
tp3326
a(I1409
I405
tp3327
a(I1041
I422
tp3328
a(I1410
I41
tp3329
a(I1005
I3
tp3330
a(I1264
I41
tp3331
a(I1468
I343
tp3332
a(I1345
I366
tp3333
a(I1041
I321
tp3334
a(I1041
I148
tp3335
a(I1431
I41
tp3336
a(I1448
I41
tp3337
a(I1152
I361
tp3338
a(I1041
I440
tp3339
a(I1361
I322
tp3340
a(I1492
I41
tp3341
a(I1020
I27
tp3342
a(I1008
I468
tp3343
a(I1337
I258
tp3344
a(I1220
I41
tp3345
a(I1041
I347
tp3346
a(I1041
I174
tp3347
a(I1390
I41
tp3348
a(I1098
I41
tp3349
a(I1311
I41
tp3350
a(I1033
I20
tp3351
a(I1096
I41
tp3352
a(I1383
I41
tp3353
a(I1263
I41
tp3354
a(I1073
I41
tp3355
a(I1337
I228
tp3356
a(I1493
I41
tp3357
a(I1104
I41
tp3358
a(I1041
I381
tp3359
a(I1150
I41
tp3360
a(I1148
I41
tp3361
a(I1468
I8
tp3362
a(I1409
I466
tp3363
a(I1301
I41
tp3364
a(I1332
I41
tp3365
a(I1345
I476
tp3366
a(I1041
I218
tp3367
a(I1133
I41
tp3368
a(I1406
I409
tp3369
a(I1307
I41
tp3370
a(I1337
I41
tp3371
a(I1368
I41
tp3372
a(I1409
I152
tp3373
a(I1126
I8
tp3374
a(I1349
I41
tp3375
a(I1041
I288
tp3376
a(I1041
I415
tp3377
a(I1397
I41
tp3378
a(I1476
I345
tp3379
a(I1006
I3
tp3380
a(I1041
I141
tp3381
a(I1041
I433
tp3382
a(I1418
I41
tp3383
a(I1256
I41
tp3384
a(I1053
I41
tp3385
a(I1345
I409
tp3386
a(I1041
I348
tp3387
a(I1041
I167
tp3388
a(I1424
I41
tp3389
a(I1470
I41
tp3390
a(I1041
I459
tp3391
a(I1468
I41
tp3392
a(I1331
I41
tp3393
a(I1035
I20
tp3394
a(I1074
I41
tp3395
a(I1373
I41
tp3396
a(I1041
I493
tp3397
a(I1304
I41
tp3398
a(I1126
I41
tp3399
a(I1289
I41
tp3400
a(I1489
I41
tp3401
a(I1310
I41
tp3402
a(I1308
I41
tp3403
a(I1338
I41
tp3404
a(I1041
I245
tp3405
a(I1299
I41
tp3406
a(I1041
I281
tp3407
a(I1005
I126
tp3408
a(I1041
I400
tp3409
a(I1003
I13
tp3410
a(I1031
I20
tp3411
a(I1041
I307
tp3412
a(I1375
I41
tp3413
a(I1041
I426
tp3414
a(I1007
I3
tp3415
a(I1343
I468
tp3416
a(I1009
I468
tp3417
a(I1155
I41
tp3418
a(I1153
I41
tp3419
a(I1041
I460
tp3420
a(I1199
I41
tp3421
a(I1038
I361
tp3422
a(I1041
I367
tp3423
a(I1413
I41
tp3424
a(I1446
I41
tp3425
a(I1235
I41
tp3426
a(I1041
I486
tp3427
a(I1211
I409
tp3428
a(I1026
I20
tp3429
a(I1337
I359
tp3430
a(I1409
I454
tp3431
a(I1363
I41
tp3432
a(I1339
I361
tp3433
a(I1041
I238
tp3434
a(I1230
I41
tp3435
a(I1041
I274
tp3436
a(I1409
I53
tp3437
a(I1286
I41
tp3438
a(I1075
I41
tp3439
a(I1316
I41
tp3440
a(I1041
I393
tp3441
a(I1314
I41
tp3442
a(I1291
I41
tp3443
a(I1041
I308
tp3444
a(I1209
I41
tp3445
a(I1352
I41
tp3446
a(I1478
I468
tp3447
a(I1366
I41
tp3448
a(I1020
I32
tp3449
a(I1351
I41
tp3450
a(I1041
I453
tp3451
a(I1178
I41
tp3452
a(I1156
I41
tp3453
a(I1020
I30
tp3454
a(I1154
I41
tp3455
a(I1041
I352
tp3456
a(I1387
I41
tp3457
a(I1161
I41
tp3458
a(I1041
I479
tp3459
a(I1192
I41
tp3460
a(I1206
I41
tp3461
a(I1236
I41
tp3462
a(I1331
I361
tp3463
a(I1041
I378
tp3464
a(I1041
I205
tp3465
a(I1211
I41
tp3466
a(I1041
I497
tp3467
a(I1272
I41
tp3468
a(I1221
I41
tp3469
a(I1425
I41
tp3470
a(I1337
I203
tp3471
a(I1154
I361
tp3472
a(I1041
I231
tp3473
a(I1037
I409
tp3474
a(I1041
I267
tp3475
a(I1409
I14
tp3476
a(I1257
I41
tp3477
a(I1271
I41
tp3478
a(I1041
I386
tp3479
a(I1045
I41
tp3480
a(I1345
I499
tp3481
a(I1076
I41
tp3482
a(I1041
I249
tp3483
a(I1041
I301
tp3484
a(I1051
I41
tp3485
a(I1292
I41
tp3486
a(I1081
I41
tp3487
a(I1041
I420
tp3488
a(I1112
I41
tp3489
a(I1397
I409
tp3490
a(I1014
I409
tp3491
a(I1003
I17
tp3492
a(I1041
I327
tp3493
a(I1328
I41
tp3494
a(I1409
I110
tp3495
a(I1135
I41
tp3496
a(I1041
I446
tp3497
a(I1141
I41
tp3498
a(I1443
I409
tp3499
a(I1041
I345
tp3500
a(I1087
I468
tp3501
a(I1126
I300
tp3502
a(I1041
I464
tp3503
a(I1388
I41
tp3504
a(I1108
I41
tp3505
a(I1067
I41
tp3506
a(I1409
I345
tp3507
a(I1168
I41
tp3508
a(I1356
I41
tp3509
a(I1214
I41
tp3510
a(I1139
I337
tp3511
a(I1212
I41
tp3512
a(I1041
I216
tp3513
a(I1441
I468
tp3514
a(I1041
I268
tp3515
a(I1337
I482
tp3516
a(I1197
I41
tp3517
a(I1409
I158
tp3518
a(I1258
I41
tp3519
a(I1126
I14
tp3520
a(I1432
I41
tp3521
a(I1041
I294
tp3522
a(I1409
I57
tp3523
a(I1279
I41
tp3524
a(I1041
I413
tp3525
a(I1054
I41
tp3526
a(I1211
I345
tp3527
a(I1052
I41
tp3528
a(I1082
I41
tp3529
a(I1461
I41
tp3530
a(I1041
I312
tp3531
a(I1059
I41
tp3532
a(I1057
I41
tp3533
a(I1041
I439
tp3534
a(I1088
I41
tp3535
a(I1134
I41
tp3536
a(I1041
I46
tp3537
a(I1497
I41
tp3538
a(I1041
I338
tp3539
a(I1041
I165
tp3540
a(I1041
I457
tp3541
a(I1119
I41
tp3542
a(I1117
I41
tp3543
a(I1041
I64
tp3544
a(I1024
I20
tp3545
a(I1041
I372
tp3546
a(I1041
I191
tp3547
a(I1392
I41
tp3548
a(I1337
I78
tp3549
a(I1290
I41
tp3550
a(I1394
I41
tp3551
a(I1287
I337
tp3552
a(I1041
I90
tp3553
a(I1037
I20
tp3554
a(I1409
I432
tp3555
a(I1008
I3
tp3556
a(I1280
I41
tp3557
a(I1190
I41
tp3558
a(I1409
I451
tp3559
a(I1041
I287
tp3560
a(I1379
I409
tp3561
a(I1409
I137
tp3562
a(I1234
I41
tp3563
a(I1408
I41
tp3564
a(I1454
I41
tp3565
a(I1041
I305
tp3566
a(I1255
I41
tp3567
a(I1337
I139
tp3568
a(I1060
I41
tp3569
a(I1058
I41
tp3570
a(I1439
I41
tp3571
a(I1437
I41
tp3572
a(I1041
I331
tp3573
a(I1498
I41
tp3574
a(I1041
I450
tp3575
a(I1110
I41
tp3576
a(I1475
I41
tp3577
a(I1473
I41
tp3578
a(I1409
I220
tp3579
a(I1041
I365
tp3580
a(I1294
I41
tp3581
a(I1415
I41
tp3582
a(I1095
I41
tp3583
a(I1125
I41
tp3584
a(I1041
I83
tp3585
a(I1340
I41
tp3586
a(I1131
I41
tp3587
a(I1409
I17
tp3588
a(I1160
I41
tp3589
a(I1041
I236
tp3590
a(I1359
I41
tp3591
a(I1476
I41
tp3592
a(I1041
I272
tp3593
a(I1409
I11
tp3594
a(I1468
I409
tp3595
a(I1041
I399
tp3596
a(I1395
I41
tp3597
a(I1409
I281
tp3598
a(I1041
I298
tp3599
a(I1196
I41
tp3600
a(I1471
I41
tp3601
a(I1041
I417
tp3602
a(I1416
I41
tp3603
a(I1020
I34
tp3604
a(I1430
I41
tp3605
a(I1337
I283
tp3606
a(I1337
I418
tp3607
a(I1041
I443
tp3608
a(I1020
I24
tp3609
a(I1445
I41
tp3610
a(I1041
I358
tp3611
a(I1041
I169
tp3612
a(I1468
I459
tp3613
a(I1345
I282
tp3614
a(I1041
I477
tp3615
a(I1451
I41
tp3616
a(I1356
I345
tp3617
a(I1481
I41
tp3618
a(I1495
I41
tp3619
a(I1041
I376
tp3620
a(I1041
I195
tp3621
a(I1468
I289
tp3622
a(I1409
I106
tp3623
a(I1101
I41
tp3624
a(I1132
I41
tp3625
a(I1336
I41
tp3626
a(I1285
I41
tp3627
a(I1345
I342
tp3628
a(I1093
I41
tp3629
a(I1042
I409
tp3630
a(I1041
I384
tp3631
a(I1321
I41
tp3632
a(I1476
I409
tp3633
a(I1041
I255
tp3634
a(I1232
I41
tp3635
a(I1029
I20
tp3636
a(I1041
I291
tp3637
a(I1409
I38
tp3638
a(I1004
I126
tp3639
a(I1040
I20
tp3640
a(I1041
I410
tp3641
a(I1300
I41
tp3642
a(I1371
I41
tp3643
a(I1401
I41
tp3644
a(I1176
I41
tp3645
a(I1041
I325
tp3646
a(I1227
I41
tp3647
a(I1106
I41
tp3648
a(I1041
I444
tp3649
a(I1381
I41
tp3650
a(I1020
I23
tp3651
a(I1018
I3
tp3652
a(I1041
I351
tp3653
a(I1205
I41
tp3654
a(I1011
I409
tp3655
a(I1041
I470
tp3656
a(I1041
I77
tp3657
a(I1345
I446
tp3658
a(I1041
I369
tp3659
a(I1041
I196
tp3660
a(I1361
I41
tp3661
a(I1041
I488
tp3662
a(I1036
I20
tp3663
a(I1457
I41
tp3664
a(I1041
I103
tp3665
a(I1488
I41
tp3666
a(I1407
I41
tp3667
a(I1344
I41
tp3668
a(I1447
I409
tp3669
a(I1041
I258
tp3670
a(I1409
I5
tp3671
a(I1138
I41
tp3672
a(I1200
I41
tp3673
a(I1041
I292
tp3674
a(I1312
I41
tp3675
a(I1041
I403
tp3676
a(I1297
I41
tp3677
a(I1343
I41
tp3678
a(I1003
I8
tp3679
a(I1341
I41
tp3680
a(I1374
I41
tp3681
a(I1372
I41
tp3682
a(I1041
I129
tp3683
a(I1106
I337
tp3684
a(I1016
I409
tp3685
a(I1041
I437
tp3686
a(I1214
I337
tp3687
a(I1379
I41
tp3688
a(I1377
I41
tp3689
a(I1152
I41
tp3690
a(I1041
I336
tp3691
a(I1175
I41
tp3692
a(I1409
I446
tp3693
a(I1019
I3
tp3694
a(I1474
I41
tp3695
a(I1041
I463
tp3696
a(I1337
I106
tp3697
a(I1183
I41
tp3698
a(I1041
I362
tp3699
a(I1181
I41
tp3700
a(I1243
I409
tp3701
a(I1041
I481
tp3702
a(I1242
I41
tp3703
a(I1321
I409
tp3704
a(I1409
I243
tp3705
a(I1217
I41
tp3706
a(I1458
I41
tp3707
a(I1041
I215
tp3708
a(I1496
I41
tp3709
a(I1043
I41
tp3710
a(I1041
I233
tp3711
a(I1337
I324
tp3712
a(I1298
I41
tp3713
a(I1041
I311
tp3714
a(I1357
I41
tp3715
a(I1309
I41
tp3716
a(I1041
I430
tp3717
a(I1319
I41
tp3718
a(I1020
I37
tp3719
a(I1350
I41
tp3720
a(I1139
I41
tp3721
a(I1380
I41
tp3722
a(I1378
I41
tp3723
a(I1030
I20
tp3724
a(I1041
I448
tp3725
a(I1355
I41
tp3726
a(I1475
I468
tp3727
a(I1032
I20
tp3728
a(I1337
I250
tp3729
a(I1174
I41
tp3730
a(I1041
I355
tp3731
a(I1085
I41
tp3732
a(I1396
I41
tp3733
a(I1342
I345
tp3734
a(I1465
I41
tp3735
a(I1126
I175
tp3736
a(I1118
I41
tp3737
a(I1159
I41
tp3738
a(I1250
I41
tp3739
a(I1189
I41
tp3740
a(I1041
I200
tp3741
a(I1337
I363
tp3742
a(I1010
I3
tp3743
a(I1218
I41
tp3744
a(I1195
I41
tp3745
a(I1225
I41
tp3746
a(I1239
I41
tp3747
a(I1041
I226
tp3748
a(I1270
I41
tp3749
a(I1187
I409
tp3750
a(I1041
I278
tp3751
a(I1409
I9
tp3752
a(I1423
I41
tp3753
a(I1028
I20
tp3754
a(I1166
I41
tp3755
a(I1003
I6
tp3756
a(I1337
I311
tp3757
a(I1080
I41
tp3758
a(I1128
I41
tp3759
a(I1041
I296
tp3760
a(I1459
I41
tp3761
a(I1409
I406
tp3762
a(I1041
I423
tp3763
a(I1219
I41
tp3764
a(I1065
I41
tp3765
a(I1079
I41
tp3766
a(I1041
I322
tp3767
a(I1109
I41
tp3768
a(I1123
I41
tp3769
a(I1140
I41
tp3770
a(I1041
I441
tp3771
a(I1245
I41
tp3772
a(I1020
I26
tp3773
a(I1115
I41
tp3774
a(I1187
I41
tp3775
a(I1145
I41
tp3776
a(I1041
I356
tp3777
a(I1041
I175
tp3778
a(I1041
I467
tp3779
a(I1039
I20
tp3780
a(I1027
I20
tp3781
a(I1041
I382
tp3782
a(I1041
I193
tp3783
a(I1171
I41
tp3784
a(I1011
I3
tp3785
a(I1165
I41
tp3786
a(I1409
I382
tp3787
a(I1226
I41
tp3788
a(I1041
I271
tp3789
a(I1110
I409
tp3790
a(I1041
I390
tp3791
a(I1201
I41
tp3792
a(I1050
I41
tp3793
a(I1126
I11
tp3794
a(I1041
I253
tp3795
a(I1278
I41
tp3796
a(I1276
I41
tp3797
a(I1041
I289
tp3798
a(I1277
I41
tp3799
a(I1429
I41
tp3800
a(I1041
I408
tp3801
a(I1322
I41
tp3802
a(I1460
I41
tp3803
a(I1432
I409
tp3804
a(I1056
I41
tp3805
a(I1261
I41
tp3806
a(I1435
I41
tp3807
a(I1041
I142
tp3808
a(I1337
I425
tp3809
a(I1066
I41
tp3810
a(I1041
I434
tp3811
a(I1137
I41
tp3812
a(I1409
I300
tp3813
a(I1087
I41
tp3814
a(I1041
I349
tp3815
a(I1021
I20
tp3816
a(I1409
I443
tp3817
a(I1116
I41
tp3818
a(I1041
I468
tp3819
a(I1041
I67
tp3820
a(I1313
I41
tp3821
a(I1121
I41
tp3822
a(I1041
I186
tp3823
a(I1041
I494
tp3824
a(I1305
I41
tp3825
a(I1409
I468
tp3826
a(I1012
I3
tp3827
a(I1409
I375
tp3828
a(I1041
I256
tp3829
a(I1041
I127
tp3830
a(I1202
I41
tp3831
a(I1375
I409
tp3832
a(I1041
I282
tp3833
a(I1041
I401
tp3834
a(I1003
I10
tp3835
a(I1426
I41
tp3836
a(I1041
I316
tp3837
a(I1041
I135
tp3838
a(I1486
I41
tp3839
a(I1438
I41
tp3840
a(I1041
I427
tp3841
a(I1044
I41
tp3842
a(I1466
I41
tp3843
a(I1072
I41
tp3844
a(I1409
I293
tp3845
a(I1412
I41
tp3846
a(I1107
I41
tp3847
a(I1041
I342
tp3848
a(I1441
I41
tp3849
a(I1468
I475
tp3850
a(I1421
I41
tp3851
a(I1472
I41
tp3852
a(I1323
I41
tp3853
a(I1041
I68
tp3854
a(I1063
I41
tp3855
a(I1041
I360
tp3856
a(I1041
I179
tp3857
a(I1124
I41
tp3858
a(I1122
I41
tp3859
a(I1041
I487
tp3860
a(I1022
I20
tp3861
a(I1006
I126
tp3862
a(I1306
I41
tp3863
a(I1241
I41
tp3864
a(I1283
I41
tp3865
a(I1281
I41
tp3866
a(I1409
I397
tp3867
a(I1358
I41
tp3868
a(I1126
I5
tp3869
a(I1041
I239
tp3870
a(I1160
I409
tp3871
a(I1041
I275
tp3872
a(I1041
I394
tp3873
a(I1042
I41
tp3874
a(I1444
I41
tp3875
a(I1041
I309
tp3876
a(I1041
I428
tp3877
a(I1167
I41
tp3878
a(I1037
I361
tp3879
a(I1041
I335
tp3880
a(I1041
I146
tp3881
a(I1361
I37
tp3882
a(I1414
I41
tp3883
a(I1203
I41
tp3884
a(I1041
I454
tp3885
a(I1106
I409
tp3886
a(I1442
I41
tp3887
a(I1020
I29
tp3888
a(I1419
I41
tp3889
a(I1041
I353
tp3890
a(I1468
I456
tp3891
a(I1480
I41
tp3892
a(I1041
I472
tp3893
a(I1034
I20
tp3894
a(I1041
I379
tp3895
a(I1100
I41
tp3896
a(I1337
I361
tp3897
a(I1479
I41
tp3898
a(I1041
I498
tp3899
a(I1284
I41
tp3900
a(I1282
I41
tp3901
a(I1136
I41
tp3902
a(I1409
I379
tp3903
a(I1254
I41
tp3904
a(I1303
I41
tp3905
a(I1320
I41
tp3906
a(I1334
I41
tp3907
a(I1041
I387
tp3908
a(I1364
I41
tp3909
a(I1038
I20
tp3910
a(I1041
I250
tp3911
a(I1373
I409
tp3912
a(I1339
I41
tp3913
a(I1041
I302
tp3914
a(I1004
I3
tp3915
a(I1400
I41
tp3916
a(I1041
I421
tp3917
a(I1337
I287
tp3918
a(I1041
I320
tp3919
a(I1041
I139
tp3920
a(I1385
I41
tp3921
a(I1399
I41
tp3922
a(I1173
I41
tp3923
a(I1235
I345
tp3924
a(I1204
I41
tp3925
a(I1162
I41
tp3926
a(I1062
I41
tp3927
a(I1041
I346
tp3928
a(I1041
I173
tp3929
a(I1179
I41
tp3930
a(I1420
I41
tp3931
a(I1041
I465
tp3932
a(I1452
I41
tp3933
a(I1240
I41
tp3934
a(I1041
I72
tp3935
a(I1361
I339
tp3936
a(I1490
I41
tp3937
a(I1041
I380
tp3938
a(I1041
I199
tp3939
a(I1456
I41
tp3940
a(I1436
I41
tp3941
a(I1041
I491
tp3942
a(I1468
I9
tp3943
a(I1366
I345
tp3944
a(I1275
I41
tp3945
a(I1417
I41
tp3946
a(I1269
I41
tp3947
a(I1485
I41
tp3948
a(I1049
I41
tp3949
a(I1041
I388
tp3950
a(I1393
I41
tp3951
a(I1126
I9
tp3952
a(I1041
I243
tp3953
a(I1041
I295
tp3954
a(I1296
I41
tp3955
a(I1342
I41
tp3956
a(I1041
I414
tp3957
a(I1462
I41
tp3958
a(I1115
I337
tp3959
a(I1041
I313
tp3960
a(I1041
I140
tp3961
a(I1376
I41
tp3962
a(I1325
I41
tp3963
a(I1041
I432
tp3964
a(I1337
I131
tp3965
a(I1386
I41
tp3966
a(I1041
I47
tp3967
a(I1335
I41
tp3968
a(I1468
I478
tp3969
a(I1317
I41
tp3970
a(I1041
I458
tp3971
a(I1405
I41
tp3972
a(I1182
I41
tp3973
a(I1180
I41
tp3974
a(I1210
I41
tp3975
a(I1041
I373
tp3976
a(I1041
I184
tp3977
a(I1409
I339
tp3978
a(I1185
I41
tp3979
a(I1041
I492
tp3980
a(I1216
I41
tp3981
a(I1262
I41
tp3982
a(I1337
I214
tp3983
a(I1041
I210
tp3984
a(I1409
I373
tp3985
a(I1467
I41
tp3986
a(I1041
I262
tp3987
a(I1247
I41
tp3988
a(I1068
I41
tp3989
a(I1365
I41
tp3990
a(I1041
I244
tp3991
a(I1041
I280
tp3992
a(I1089
I361
tp3993
a(I1002
I1
tp3994
a(I1041
I407
tp3995
a(I1102
I41
tp3996
a(I1003
I12
tp3997
a(I1041
I306
tp3998
a(I1041
I133
tp3999
a(I1318
I41
tp4000
a(I1409
I187
tp4001
a(I1041
I425
tp4002
a(I1477
I41
tp4003
a(I1094
I41
tp4004
a(I1041
I340
tp4005
a(I1041
I159
tp4006
a(I1013
I126
tp4007
a(I1248
I41
tp4008
a(I1041
I451
tp4009
a(I1402
I41
tp4010
a(I1362
I41
tp4011
a(I1396
I345
tp4012
a(I1041
I366
tp4013
a(I1281
I409
tp4014
a(I1041
I485
tp4015
a(I1158
I41
tp4016
a(I1188
I41
tp4017
a(I1186
I41
tp4018
a(I1163
I41
tp4019
a(I1398
I41
tp4020
a(I1224
I41
tp4021
a(I1337
I493
tp4022
a(I1238
I41
tp4023
a(I1071
I41
tp4024
a(I1041
I237
tp4025
a(I1422
I41
tp4026
a(I1419
I409
tp4027
a(I1011
I468
tp4028
a(I1223
I41
tp4029
atRp4030
s.